(dp0
cnumpy.core.multiarray
scalar
p1
(cnumpy
dtype
p2
(S'i8'
p3
I0
I1
tp4
Rp5
(I3
S'<'
p6
NNNI-1
I-1
I0
tp7
bS'H\x00\x00\x00\x00\x00\x00\x00'
p8
tp9
Rp10
(lp11
S'W 52 St & 11 Ave'
p12
aF40.76727216
aF-73.99392888
asg1
(g5
S'O\x00\x00\x00\x00\x00\x00\x00'
p13
tp14
Rp15
(lp16
S'Franklin St & W Broadway'
p17
aF40.71911552
aF-74.00666661
asg1
(g5
S'R\x00\x00\x00\x00\x00\x00\x00'
p18
tp19
Rp20
(lp21
S'St James Pl & Pearl St'
p22
aF40.71117416
aF-74.00016545
asg1
(g5
S'S\x00\x00\x00\x00\x00\x00\x00'
p23
tp24
Rp25
(lp26
S'Atlantic Ave & Fort Greene Pl'
p27
aF40.68382604
aF-73.97632328
asg1
(g5
S't\x00\x00\x00\x00\x00\x00\x00'
p28
tp29
Rp30
(lp31
S'W 17 St & 8 Ave'
p32
aF40.74177603
aF-74.00149746
asg1
(g5
S'w\x00\x00\x00\x00\x00\x00\x00'
p33
tp34
Rp35
(lp36
S'Park Ave & St Edwards St'
p37
aF40.69608941
aF-73.97803415
asg1
(g5
S'x\x00\x00\x00\x00\x00\x00\x00'
p38
tp39
Rp40
(lp41
S'Lexington Ave & Classon Ave'
p42
aF40.68676793
aF-73.95928168
asg1
(g5
S'\x7f\x00\x00\x00\x00\x00\x00\x00'
p43
tp44
Rp45
(lp46
S'Barrow St & Hudson St'
p47
aF40.73172428
aF-74.00674436
asg1
(g5
S'\x80\x00\x00\x00\x00\x00\x00\x00'
p48
tp49
Rp50
(lp51
S'MacDougal St & Prince St'
p52
aF40.72710258
aF-74.00297088
asg1
(g5
S'\x89\x00\x00\x00\x00\x00\x00\x00'
p53
tp54
Rp55
(lp56
S'E 56 St & Madison Ave'
p57
aF40.761628
aF-73.972924
asg1
(g5
S'\x8f\x00\x00\x00\x00\x00\x00\x00'
p58
tp59
Rp60
(lp61
S'Clinton St & Joralemon St'
p62
aF40.69239502
aF-73.99337909
asg1
(g5
S'\x90\x00\x00\x00\x00\x00\x00\x00'
p63
tp64
Rp65
(lp66
S'Nassau St & Navy St'
p67
aF40.69839895
aF-73.98068914
asg1
(g5
S'\x92\x00\x00\x00\x00\x00\x00\x00'
p68
tp69
Rp70
(lp71
S'Hudson St & Reade St'
p72
aF40.71625008
aF-74.0091059
asg1
(g5
S'\x93\x00\x00\x00\x00\x00\x00\x00'
p73
tp74
Rp75
(lp76
S'Greenwich St & Warren St'
p77
aF40.71542197
aF-74.01121978
asg1
(g5
S'\x96\x00\x00\x00\x00\x00\x00\x00'
p78
tp79
Rp80
(lp81
S'E 2 St & Avenue C'
p82
aF40.720873600000004
aF-73.98085795
asg1
(g5
S'\x97\x00\x00\x00\x00\x00\x00\x00'
p83
tp84
Rp85
(lp86
S'Cleveland Pl & Spring St'
p87
aF40.7218158
aF-73.99720307
asg1
(g5
S'\x98\x00\x00\x00\x00\x00\x00\x00'
p88
tp89
Rp90
(lp91
S'Warren St & Church St'
p92
aF40.71473993
aF-74.00910627
asg1
(g5
S'\x99\x00\x00\x00\x00\x00\x00\x00'
p93
tp94
Rp95
(lp96
S'E 40 St & 5 Ave'
p97
aF40.752062306999996
aF-73.9816324043
asg1
(g5
S'\x9d\x00\x00\x00\x00\x00\x00\x00'
p98
tp99
Rp100
(lp101
S'Henry St & Atlantic Ave'
p102
aF40.69089272
aF-73.99612349
asg1
(g5
S'\xa0\x00\x00\x00\x00\x00\x00\x00'
p103
tp104
Rp105
(lp106
S'E 37 St & Lexington Ave'
p107
aF40.748238
aF-73.978311
asg1
(g5
S'\xa1\x00\x00\x00\x00\x00\x00\x00'
p108
tp109
Rp110
(lp111
S'LaGuardia Pl & W 3 St'
p112
aF40.72917025
aF-73.99810231
asg1
(g5
S'\xa4\x00\x00\x00\x00\x00\x00\x00'
p113
tp114
Rp115
(lp116
S'E 47 St & 2 Ave'
p117
aF40.75323098
aF-73.97032517
asg1
(g5
S'\xa7\x00\x00\x00\x00\x00\x00\x00'
p118
tp119
Rp120
(lp121
S'E 39 St & 3 Ave'
p122
aF40.7489006
aF-73.97604882
asg1
(g5
S'\xa8\x00\x00\x00\x00\x00\x00\x00'
p123
tp124
Rp125
(lp126
S'W 18 St & 6 Ave'
p127
aF40.73971301
aF-73.99456405
asg1
(g5
S'\xad\x00\x00\x00\x00\x00\x00\x00'
p128
tp129
Rp130
(lp131
S'Broadway & W 49 St'
p132
aF40.76064679
aF-73.98442659
asg1
(g5
S'\xae\x00\x00\x00\x00\x00\x00\x00'
p133
tp134
Rp135
(lp136
S'E 25 St & 1 Ave'
p137
aF40.7381765
aF-73.97738662
asg1
(g5
S'\xc3\x00\x00\x00\x00\x00\x00\x00'
p138
tp139
Rp140
(lp141
S'Liberty St & Broadway'
p142
aF40.70905623
aF-74.01043382
asg1
(g5
S'\xd4\x00\x00\x00\x00\x00\x00\x00'
p143
tp144
Rp145
(lp146
S'W 16 St & The High Line'
p147
aF40.74334935
aF-74.00681753
asg1
(g5
S'\xd8\x00\x00\x00\x00\x00\x00\x00'
p148
tp149
Rp150
(lp151
S'Columbia Heights & Cranberry St'
p152
aF40.70037867
aF-73.99548059
asg1
(g5
S'\xd9\x00\x00\x00\x00\x00\x00\x00'
p153
tp154
Rp155
(lp156
S'Old Fulton St'
p157
aF40.70277159
aF-73.99383605
asg1
(g5
S'\xda\x00\x00\x00\x00\x00\x00\x00'
p158
tp159
Rp160
(lp161
S'Gallatin Pl & Livingston St'
p162
aF40.69028437
aF-73.98707105
asg1
(g5
S'\xdf\x00\x00\x00\x00\x00\x00\x00'
p163
tp164
Rp165
(lp166
S'W 13 St & 7 Ave'
p167
aF40.73781509
aF-73.99994661
asg1
(g5
S'\xe0\x00\x00\x00\x00\x00\x00\x00'
p168
tp169
Rp170
(lp171
S'Spruce St & Nassau St'
p172
aF40.71146364
aF-74.00552427
asg1
(g5
S'\xe1\x00\x00\x00\x00\x00\x00\x00'
p173
tp174
Rp175
(lp176
S'W 14 St & The High Line'
p177
aF40.74195138
aF-74.00803013
asg1
(g5
S'\xe4\x00\x00\x00\x00\x00\x00\x00'
p178
tp179
Rp180
(lp181
S'E 48 St & 3 Ave'
p182
aF40.7546011026
aF-73.971878855
asg1
(g5
S'\xe5\x00\x00\x00\x00\x00\x00\x00'
p183
tp184
Rp185
(lp186
S'Great Jones St'
p187
aF40.72743423
aF-73.99379025
asg1
(g5
S'\xe8\x00\x00\x00\x00\x00\x00\x00'
p188
tp189
Rp190
(lp191
S'Cadman Plaza E & Tillary St'
p192
aF40.69597683
aF-73.99014892
asg1
(g5
S'\xe9\x00\x00\x00\x00\x00\x00\x00'
p193
tp194
Rp195
(lp196
S'Joralemon St & Adams St'
p197
aF40.69246277
aF-73.98963911
asg1
(g5
S'\xec\x00\x00\x00\x00\x00\x00\x00'
p198
tp199
Rp200
(lp201
S'St Marks Pl & 2 Ave'
p202
aF40.7284186
aF-73.98713956
asg1
(g5
S'\xed\x00\x00\x00\x00\x00\x00\x00'
p203
tp204
Rp205
(lp206
S'E 11 St & 2 Ave'
p207
aF40.73047309
aF-73.98672378
asg1
(g5
S'\xee\x00\x00\x00\x00\x00\x00\x00'
p208
tp209
Rp210
(lp211
S'Bank St & Washington St'
p212
aF40.7361967
aF-74.00859207
asg1
(g5
S'\xef\x00\x00\x00\x00\x00\x00\x00'
p213
tp214
Rp215
(lp216
S'Willoughby St & Fleet St'
p217
aF40.69196566
aF-73.9813018
asg1
(g5
S'\xf1\x00\x00\x00\x00\x00\x00\x00'
p218
tp219
Rp220
(lp221
S'DeKalb Ave & S Portland Ave'
p222
aF40.68981035
aF-73.97493121
asg1
(g5
S'\xf2\x00\x00\x00\x00\x00\x00\x00'
p223
tp224
Rp225
(lp226
S'Flushing Ave & Carlton Ave'
p227
aF40.69788349
aF-73.97350332
asg1
(g5
S'\xf3\x00\x00\x00\x00\x00\x00\x00'
p228
tp229
Rp230
(lp231
S'Fulton St & Rockwell Pl'
p232
aF40.687979
aF-73.978474
asg1
(g5
S'\xf4\x00\x00\x00\x00\x00\x00\x00'
p233
tp234
Rp235
(lp236
S'Willoughby Ave & Hall St'
p237
aF40.69196035
aF-73.96536851
asg1
(g5
S'\xf5\x00\x00\x00\x00\x00\x00\x00'
p238
tp239
Rp240
(lp241
S'Myrtle Ave & St Edwards St'
p242
aF40.69327018
aF-73.97703874
asg1
(g5
S'\xf7\x00\x00\x00\x00\x00\x00\x00'
p243
tp244
Rp245
(lp246
S'Perry St & Bleecker St'
p247
aF40.73535398
aF-74.00483091
asg1
(g5
S'\xf8\x00\x00\x00\x00\x00\x00\x00'
p248
tp249
Rp250
(lp251
S'Laight St & Hudson St'
p252
aF40.72185379
aF-74.00771779
asg1
(g5
S'\xf9\x00\x00\x00\x00\x00\x00\x00'
p253
tp254
Rp255
(lp256
S'Harrison St & Hudson St'
p257
aF40.71870987
aF-74.0090009
asg1
(g5
S'\xfa\x00\x00\x00\x00\x00\x00\x00'
p258
tp259
Rp260
(lp261
S'Lafayette St & Jersey St'
p262
aF40.72456089
aF-73.99565293
asg1
(g5
S'\xfb\x00\x00\x00\x00\x00\x00\x00'
p263
tp264
Rp265
(lp266
S'Mott St & Prince St'
p267
aF40.72317958
aF-73.99480012
asg1
(g5
S'\xfc\x00\x00\x00\x00\x00\x00\x00'
p268
tp269
Rp270
(lp271
S'MacDougal St & Washington Sq'
p272
aF40.73226398
aF-73.99852205
asg1
(g5
S'\xfd\x00\x00\x00\x00\x00\x00\x00'
p273
tp274
Rp275
(lp276
S'W 13 St & 5 Ave'
p277
aF40.73543934
aF-73.99453948
asg1
(g5
S'\xfe\x00\x00\x00\x00\x00\x00\x00'
p278
tp279
Rp280
(lp281
S'W 11 St & 6 Ave'
p282
aF40.73532427
aF-73.99800419
asg1
(g5
S'\xff\x00\x00\x00\x00\x00\x00\x00'
p283
tp284
Rp285
(lp286
S'NYCBS Depot - SSP'
p287
aF40.646768
aF-74.01651
asg1
(g5
S'\x01\x01\x00\x00\x00\x00\x00\x00'
p288
tp289
Rp290
(lp291
S'Lispenard St & Broadway'
p292
aF40.71939226
aF-74.00247214
asg1
(g5
S'\x02\x01\x00\x00\x00\x00\x00\x00'
p293
tp294
Rp295
(lp296
S'DeKalb Ave & Vanderbilt Ave'
p297
aF40.68940747
aF-73.96885458
asg1
(g5
S'\x03\x01\x00\x00\x00\x00\x00\x00'
p298
tp299
Rp300
(lp301
S'South St & Whitehall St'
p302
aF40.70122128
aF-74.01234218
asg1
(g5
S'\x04\x01\x00\x00\x00\x00\x00\x00'
p303
tp304
Rp305
(lp306
S'Broad St & Bridge St'
p307
aF40.70365182
aF-74.01167797
asg1
(g5
S'\x05\x01\x00\x00\x00\x00\x00\x00'
p308
tp309
Rp310
(lp311
S'Johnson St & Gold St'
p312
aF40.69474881
aF-73.98362464
asg1
(g5
S'\x06\x01\x00\x00\x00\x00\x00\x00'
p313
tp314
Rp315
(lp316
S'Washington Park'
p317
aF40.69178232
aF-73.97372989
asg1
(g5
S'\x07\x01\x00\x00\x00\x00\x00\x00'
p318
tp319
Rp320
(lp321
S'Elizabeth St & Hester St'
p322
aF40.717290000000006
aF-73.996375
asg1
(g5
S'\x08\x01\x00\x00\x00\x00\x00\x00'
p323
tp324
Rp325
(lp326
S'Maiden Ln & Pearl St'
p327
aF40.70706456
aF-74.00731853
asg1
(g5
S'\t\x01\x00\x00\x00\x00\x00\x00'
p328
tp329
Rp330
(lp331
S'Stanton St & Chrystie St'
p332
aF40.72229346
aF-73.99147535
asg1
(g5
S'\n\x01\x00\x00\x00\x00\x00\x00'
p333
tp334
Rp335
(lp336
S'Avenue D & E 8 St'
p337
aF40.72368361
aF-73.97574813
asg1
(g5
S'\x0b\x01\x00\x00\x00\x00\x00\x00'
p338
tp339
Rp340
(lp341
S'Broadway & W 36 St'
p342
aF40.75097711
aF-73.98765428
asg1
(g5
S'\x0c\x01\x00\x00\x00\x00\x00\x00'
p343
tp344
Rp345
(lp346
S'Howard St & Centre St'
p347
aF40.71910537
aF-73.99973337
asg1
(g5
S'\x0e\x01\x00\x00\x00\x00\x00\x00'
p348
tp349
Rp350
(lp351
S'Adelphi St & Myrtle Ave'
p352
aF40.69308257
aF-73.97178913
asg1
(g5
S'\x0f\x01\x00\x00\x00\x00\x00\x00'
p353
tp354
Rp355
(lp356
S'Ashland Pl & Hanson Pl'
p357
aF40.68528172
aF-73.97805813
asg1
(g5
S'\x12\x01\x00\x00\x00\x00\x00\x00'
p358
tp359
Rp360
(lp361
S'Lafayette Ave & Fort Greene Pl'
p362
aF40.68691865
aF-73.976682
asg1
(g5
S'\x13\x01\x00\x00\x00\x00\x00\x00'
p363
tp364
Rp365
(lp366
S'Washington Ave & Greene Ave'
p367
aF40.68650065
aF-73.96563307
asg1
(g5
S'\x14\x01\x00\x00\x00\x00\x00\x00'
p368
tp369
Rp370
(lp371
S'Duane St & Greenwich St'
p372
aF40.71748752
aF-74.0104554
asg1
(g5
S'\x16\x01\x00\x00\x00\x00\x00\x00'
p373
tp374
Rp375
(lp376
S'Concord St & Bridge St'
p377
aF40.69766564
aF-73.98476437
asg1
(g5
S'\x17\x01\x00\x00\x00\x00\x00\x00'
p378
tp379
Rp380
(lp381
S'Sands St & Gold St'
p382
aF40.707873
aF-74.00166999999999
asg1
(g5
S'\x18\x01\x00\x00\x00\x00\x00\x00'
p383
tp384
Rp385
(lp386
S'E 10 St & 5 Ave'
p387
aF40.73331967
aF-73.99510132
asg1
(g5
S'\x19\x01\x00\x00\x00\x00\x00\x00'
p388
tp389
Rp390
(lp391
S'Grand Army Plaza & Central Park S'
p392
aF40.764397100000004
aF-73.97371465
asg1
(g5
S'\x1a\x01\x00\x00\x00\x00\x00\x00'
p393
tp394
Rp395
(lp396
S'Kent Ave & S 11 St'
p397
aF40.70827295
aF-73.96834101
asg1
(g5
S'\x1c\x01\x00\x00\x00\x00\x00\x00'
p398
tp399
Rp400
(lp401
S'Greenwich Ave & 8 Ave'
p402
aF40.7390169121
aF-74.0026376103
asg1
(g5
S'\x1d\x01\x00\x00\x00\x00\x00\x00'
p403
tp404
Rp405
(lp406
S'Broadway & E 14 St'
p407
aF40.73454567
aF-73.99074142
asg1
(g5
S'!\x01\x00\x00\x00\x00\x00\x00'
p408
tp409
Rp410
(lp411
S'Monroe St & Classon Ave'
p412
aF40.684568299999995
aF-73.95881081
asg1
(g5
S'"\x01\x00\x00\x00\x00\x00\x00'
p413
tp414
Rp415
(lp416
S'2 Ave & E 58 St'
p417
aF40.76020258
aF-73.96478473
asg1
(g5
S'#\x01\x00\x00\x00\x00\x00\x00'
p418
tp419
Rp420
(lp421
S'Madison St & Montgomery St'
p422
aF40.713126
aF-73.984844
asg1
(g5
S'%\x01\x00\x00\x00\x00\x00\x00'
p423
tp424
Rp425
(lp426
S'Lafayette St & E 8 St'
p427
aF40.73028666
aF-73.9907647
asg1
(g5
S'&\x01\x00\x00\x00\x00\x00\x00'
p428
tp429
Rp430
(lp431
S'Washington Square E'
p432
aF40.73049393
aF-73.99572140000001
asg1
(g5
S"'\x01\x00\x00\x00\x00\x00\x00"
p433
tp434
Rp435
(lp436
S'Pike St & E Broadway'
p437
aF40.71406667
aF-73.99293911
asg1
(g5
S'(\x01\x00\x00\x00\x00\x00\x00'
p438
tp439
Rp440
(lp441
S'Division St & Bowery'
p442
aF40.71413089
aF-73.99704679999999
asg1
(g5
S')\x01\x00\x00\x00\x00\x00\x00'
p443
tp444
Rp445
(lp446
S'E 15 St & 3 Ave'
p447
aF40.734232
aF-73.986923
asg1
(g5
S'*\x01\x00\x00\x00\x00\x00\x00'
p448
tp449
Rp450
(lp451
S'3 Ave & Schermerhorn St'
p452
aF40.68683208
aF-73.9796772
asg1
(g5
S',\x01\x00\x00\x00\x00\x00\x00'
p453
tp454
Rp455
(lp456
S'Shevchenko Pl & E 6 St'
p457
aF40.728145
aF-73.990214
asg1
(g5
S'-\x01\x00\x00\x00\x00\x00\x00'
p458
tp459
Rp460
(lp461
S'E 2 St & Avenue B'
p462
aF40.72217444
aF-73.98368779
asg1
(g5
S'.\x01\x00\x00\x00\x00\x00\x00'
p463
tp464
Rp465
(lp466
S'Avenue D & E 3 St'
p467
aF40.72082834
aF-73.97793172
asg1
(g5
S'/\x01\x00\x00\x00\x00\x00\x00'
p468
tp469
Rp470
(lp471
S'Mercer St & Spring St'
p472
aF40.72362738
aF-73.99949601
asg1
(g5
S'0\x01\x00\x00\x00\x00\x00\x00'
p473
tp474
Rp475
(lp476
S'Broadway & Battery Pl'
p477
aF40.70463334
aF-74.01361706
asg1
(g5
S'1\x01\x00\x00\x00\x00\x00\x00'
p478
tp479
Rp480
(lp481
S'E 58 St & 3 Ave'
p482
aF40.76095756
aF-73.96724467
asg1
(g5
S'2\x01\x00\x00\x00\x00\x00\x00'
p483
tp484
Rp485
(lp486
S'Cliff St & Fulton St'
p487
aF40.70823502
aF-74.00530063
asg1
(g5
S'3\x01\x00\x00\x00\x00\x00\x00'
p488
tp489
Rp490
(lp491
S'Canal St & Rutgers St'
p492
aF40.71427487
aF-73.98990025
asg1
(g5
S'4\x01\x00\x00\x00\x00\x00\x00'
p493
tp494
Rp495
(lp496
S'St James Pl & Oliver St'
p497
aF40.71307916
aF-73.99851193
asg1
(g5
S'5\x01\x00\x00\x00\x00\x00\x00'
p498
tp499
Rp500
(lp501
S'Murray St & West St'
p502
aF40.7149787
aF-74.013012
asg1
(g5
S'6\x01\x00\x00\x00\x00\x00\x00'
p503
tp504
Rp505
(lp506
S'State St & Smith St'
p507
aF40.68926942
aF-73.98912867
asg1
(g5
S'7\x01\x00\x00\x00\x00\x00\x00'
p508
tp509
Rp510
(lp511
S'Norfolk St & Broome St'
p512
aF40.7172274
aF-73.98802084
asg1
(g5
S'8\x01\x00\x00\x00\x00\x00\x00'
p513
tp514
Rp515
(lp516
S'Allen St & E Houston St'
p517
aF40.722055
aF-73.989111
asg1
(g5
S'9\x01\x00\x00\x00\x00\x00\x00'
p518
tp519
Rp520
(lp521
S'Washington Ave & Park Ave'
p522
aF40.69610226
aF-73.96751037
asg1
(g5
S':\x01\x00\x00\x00\x00\x00\x00'
p523
tp524
Rp525
(lp526
S'Montague St & Clinton St'
p527
aF40.69383
aF-73.990539
asg1
(g5
S';\x01\x00\x00\x00\x00\x00\x00'
p528
tp529
Rp530
(lp531
S'South St & Gouverneur Ln'
p532
aF40.70355377
aF-74.00670227
asg1
(g5
S'<\x01\x00\x00\x00\x00\x00\x00'
p533
tp534
Rp535
(lp536
S'Fulton St & William St'
p537
aF40.70955958
aF-74.00653609
asg1
(g5
S'=\x01\x00\x00\x00\x00\x00\x00'
p538
tp539
Rp540
(lp541
S'E 6 St & Avenue B'
p542
aF40.72453734
aF-73.98185424
asg1
(g5
S'>\x01\x00\x00\x00\x00\x00\x00'
p543
tp544
Rp545
(lp546
S'E 43 St & Vanderbilt Ave'
p547
aF40.75320159
aF-73.9779874
asg1
(g5
S'?\x01\x00\x00\x00\x00\x00\x00'
p548
tp549
Rp550
(lp551
S'Park Pl & Church St'
p552
aF40.71336124
aF-74.00937622
asg1
(g5
S'@\x01\x00\x00\x00\x00\x00\x00'
p553
tp554
Rp555
(lp556
S'Church St & Leonard St'
p557
aF40.717571
aF-74.005549
asg1
(g5
S'A\x01\x00\x00\x00\x00\x00\x00'
p558
tp559
Rp560
(lp561
S'Cadman Plaza E & Red Cross Pl'
p562
aF40.69991755
aF-73.98971773
asg1
(g5
S'B\x01\x00\x00\x00\x00\x00\x00'
p563
tp564
Rp565
(lp566
S'Clinton St & Tillary St'
p567
aF40.696191999999996
aF-73.991218
asg1
(g5
S'C\x01\x00\x00\x00\x00\x00\x00'
p568
tp569
Rp570
(lp571
S'Lawrence St & Willoughby St'
p572
aF40.69236178
aF-73.98631746
asg1
(g5
S'D\x01\x00\x00\x00\x00\x00\x00'
p573
tp574
Rp575
(lp576
S'DeKalb Ave & Hudson Ave'
p577
aF40.689888
aF-73.981013
asg1
(g5
S'E\x01\x00\x00\x00\x00\x00\x00'
p578
tp579
Rp580
(lp581
S'E 19 St & 3 Ave'
p582
aF40.73624527
aF-73.98473765
asg1
(g5
S'F\x01\x00\x00\x00\x00\x00\x00'
p583
tp584
Rp585
(lp586
S'E 11 St & 1 Ave'
p587
aF40.72953837
aF-73.98426726
asg1
(g5
S'G\x01\x00\x00\x00\x00\x00\x00'
p588
tp589
Rp590
(lp591
S'Vesey Pl & River Terrace'
p592
aF40.715337899999994
aF-74.01658354
asg1
(g5
S'H\x01\x00\x00\x00\x00\x00\x00'
p593
tp594
Rp595
(lp596
S'Watts St & Greenwich St'
p597
aF40.72405549
aF-74.00965965
asg1
(g5
S'I\x01\x00\x00\x00\x00\x00\x00'
p598
tp599
Rp600
(lp601
S'Greenwich St & N Moore St'
p602
aF40.72043411
aF-74.01020609
asg1
(g5
S'J\x01\x00\x00\x00\x00\x00\x00'
p603
tp604
Rp605
(lp606
S'Reade St & Broadway'
p607
aF40.71450451
aF-74.00562789
asg1
(g5
S'K\x01\x00\x00\x00\x00\x00\x00'
p608
tp609
Rp610
(lp611
S'Pike St & Monroe St'
p612
aF40.71173107
aF-73.99193043
asg1
(g5
S'L\x01\x00\x00\x00\x00\x00\x00'
p613
tp614
Rp615
(lp616
S'Cherry St'
p617
aF40.71219906
aF-73.97948148
asg1
(g5
S'N\x01\x00\x00\x00\x00\x00\x00'
p618
tp619
Rp620
(lp621
S'W 20 St & 7 Ave'
p622
aF40.74238787
aF-73.99726235
asg1
(g5
S'O\x01\x00\x00\x00\x00\x00\x00'
p623
tp624
Rp625
(lp626
S'Washington Pl & Broadway'
p627
aF40.72903917
aF-73.99404649
asg1
(g5
S'P\x01\x00\x00\x00\x00\x00\x00'
p628
tp629
Rp630
(lp631
S'Sullivan St & Washington Sq'
p632
aF40.73047747
aF-73.99906065
asg1
(g5
S'Q\x01\x00\x00\x00\x00\x00\x00'
p633
tp634
Rp635
(lp636
S'Old Slip & Front St'
p637
aF40.703799200000006
aF-74.00838676
asg1
(g5
S'S\x01\x00\x00\x00\x00\x00\x00'
p638
tp639
Rp640
(lp641
S'Avenue D & E 12 St'
p642
aF40.72580614
aF-73.97422494
asg1
(g5
S'T\x01\x00\x00\x00\x00\x00\x00'
p643
tp644
Rp645
(lp646
S'Madison St & Clinton St'
p647
aF40.71269042
aF-73.98776323
asg1
(g5
S'U\x01\x00\x00\x00\x00\x00\x00'
p648
tp649
Rp650
(lp651
S'Stanton St & Mangin St'
p652
aF40.71782143
aF-73.97628939
asg1
(g5
S'V\x01\x00\x00\x00\x00\x00\x00'
p653
tp654
Rp655
(lp656
S'Columbia St & Rivington St'
p657
aF40.71739973
aF-73.98016555
asg1
(g5
S'W\x01\x00\x00\x00\x00\x00\x00'
p658
tp659
Rp660
(lp661
S'Clinton Ave & Flushing Ave'
p662
aF40.69794
aF-73.96986848
asg1
(g5
S'X\x01\x00\x00\x00\x00\x00\x00'
p663
tp664
Rp665
(lp666
S'Monroe St & Bedford Ave'
p667
aF40.6851443
aF-73.95380904
asg1
(g5
S'Y\x01\x00\x00\x00\x00\x00\x00'
p668
tp669
Rp670
(lp671
S'W 13 St & 6 Ave'
p672
aF40.73649403
aF-73.99704374
asg1
(g5
S'Z\x01\x00\x00\x00\x00\x00\x00'
p673
tp674
Rp675
(lp676
S'Bank St & Hudson St'
p677
aF40.73652889
aF-74.00618026
asg1
(g5
S'[\x01\x00\x00\x00\x00\x00\x00'
p678
tp679
Rp680
(lp681
S'W Houston St & Hudson St'
p682
aF40.72873888
aF-74.00748842
asg1
(g5
S'\\\x01\x00\x00\x00\x00\x00\x00'
p683
tp684
Rp685
(lp686
S'W Broadway & Spring St'
p687
aF40.72490985
aF-74.00154702
asg1
(g5
S']\x01\x00\x00\x00\x00\x00\x00'
p688
tp689
Rp690
(lp691
S'Rivington St & Ridge St'
p692
aF40.71850211
aF-73.98329859
asg1
(g5
S'^\x01\x00\x00\x00\x00\x00\x00'
p693
tp694
Rp695
(lp696
S'Clinton St & Grand St'
p697
aF40.71559509
aF-73.9870295
asg1
(g5
S'_\x01\x00\x00\x00\x00\x00\x00'
p698
tp699
Rp700
(lp701
S'Front St & Maiden Ln'
p702
aF40.70530954
aF-74.00612572
asg1
(g5
S'`\x01\x00\x00\x00\x00\x00\x00'
p703
tp704
Rp705
(lp706
S'W 56 St & 6 Ave'
p707
aF40.76340613
aF-73.97722479
asg1
(g5
S'a\x01\x00\x00\x00\x00\x00\x00'
p708
tp709
Rp710
(lp711
S'S Portland Ave & Hanson Pl'
p712
aF40.68539567
aF-73.97431458
asg1
(g5
S'b\x01\x00\x00\x00\x00\x00\x00'
p713
tp714
Rp715
(lp716
S'Emerson Pl & Myrtle Ave'
p717
aF40.69363137
aF-73.96223558
asg1
(g5
S'c\x01\x00\x00\x00\x00\x00\x00'
p718
tp719
Rp720
(lp721
S'Bayard St & Baxter St'
p722
aF40.71602118
aF-73.99974372
asg1
(g5
S'd\x01\x00\x00\x00\x00\x00\x00'
p723
tp724
Rp725
(lp726
S'Bialystoker Pl & Delancey St'
p727
aF40.71622644
aF-73.98261206
asg1
(g5
S'e\x01\x00\x00\x00\x00\x00\x00'
p728
tp729
Rp730
(lp731
S'E 11 St & Broadway'
p732
aF40.73261787
aF-73.99158043
asg1
(g5
S'f\x01\x00\x00\x00\x00\x00\x00'
p733
tp734
Rp735
(lp736
S'Christopher St & Greenwich St'
p737
aF40.73291553
aF-74.00711384
asg1
(g5
S'g\x01\x00\x00\x00\x00\x00\x00'
p738
tp739
Rp740
(lp741
S'E 47 St & Park Ave'
p742
aF40.75510267
aF-73.97498696
asg1
(g5
S'h\x01\x00\x00\x00\x00\x00\x00'
p743
tp744
Rp745
(lp746
S'William St & Pine St'
p747
aF40.70717936
aF-74.00887308
asg1
(g5
S'i\x01\x00\x00\x00\x00\x00\x00'
p748
tp749
Rp750
(lp751
S'Allen St & Hester St'
p752
aF40.71605866
aF-73.99190759
asg1
(g5
S'j\x01\x00\x00\x00\x00\x00\x00'
p753
tp754
Rp755
(lp756
S'Broadway & W 37 St'
p757
aF40.75172632
aF-73.98753523
asg1
(g5
S'k\x01\x00\x00\x00\x00\x00\x00'
p758
tp759
Rp760
(lp761
S'West Thames St'
p762
aF40.70834698
aF-74.01713445
asg1
(g5
S'l\x01\x00\x00\x00\x00\x00\x00'
p763
tp764
Rp765
(lp766
S'Lafayette Ave & Classon Ave'
p767
aF40.68900443
aF-73.96023854
asg1
(g5
S'm\x01\x00\x00\x00\x00\x00\x00'
p768
tp769
Rp770
(lp771
S'Fulton St & Grand Ave'
p772
aF40.68223166
aF-73.9614583
asg1
(g5
S'n\x01\x00\x00\x00\x00\x00\x00'
p773
tp774
Rp775
(lp776
S'Clinton Ave & Myrtle Ave'
p777
aF40.693261
aF-73.968896
asg1
(g5
S'o\x01\x00\x00\x00\x00\x00\x00'
p778
tp779
Rp780
(lp781
S'E 53 St & Lexington Ave'
p782
aF40.75828065
aF-73.97069431
asg1
(g5
S'p\x01\x00\x00\x00\x00\x00\x00'
p783
tp784
Rp785
(lp786
S'Carmine St & 6 Ave'
p787
aF40.73038599
aF-74.00214988
asg1
(g5
S'q\x01\x00\x00\x00\x00\x00\x00'
p788
tp789
Rp790
(lp791
S'Washington Pl & 6 Ave'
p792
aF40.73224119
aF-74.00026394
asg1
(g5
S't\x01\x00\x00\x00\x00\x00\x00'
p793
tp794
Rp795
(lp796
S'Franklin Ave & Myrtle Ave'
p797
aF40.694528000000005
aF-73.958089
asg1
(g5
S'u\x01\x00\x00\x00\x00\x00\x00'
p798
tp799
Rp800
(lp801
S'Willoughby Ave & Walworth St'
p802
aF40.69331716
aF-73.95381995
asg1
(g5
S'w\x01\x00\x00\x00\x00\x00\x00'
p803
tp804
Rp805
(lp806
S'Mercer St & Bleecker St'
p807
aF40.72679454
aF-73.99695094
asg1
(g5
S'x\x01\x00\x00\x00\x00\x00\x00'
p808
tp809
Rp810
(lp811
S'John St & William St'
p812
aF40.70862144
aF-74.00722156
asg1
(g5
S'y\x01\x00\x00\x00\x00\x00\x00'
p813
tp814
Rp815
(lp816
S'6 Ave & Canal St'
p817
aF40.72243797
aF-74.00566443
asg1
(g5
S'{\x01\x00\x00\x00\x00\x00\x00'
p818
tp819
Rp820
(lp821
S'W 31 St & 7 Ave'
p822
aF40.749156
aF-73.9916
asg1
(g5
S'|\x01\x00\x00\x00\x00\x00\x00'
p823
tp824
Rp825
(lp826
S'W 4 St & 7 Ave S'
p827
aF40.73401143
aF-74.00293877
asg1
(g5
S'~\x01\x00\x00\x00\x00\x00\x00'
p828
tp829
Rp830
(lp831
S'University Pl & E 14 St'
p832
aF40.73492695
aF-73.99200509
asg1
(g5
S'\x7f\x01\x00\x00\x00\x00\x00\x00'
p833
tp834
Rp835
(lp836
S'Greenwich Ave & Charles St'
p837
aF40.735238
aF-74.000271
asg1
(g5
S'\x80\x01\x00\x00\x00\x00\x00\x00'
p838
tp839
Rp840
(lp841
S'Fulton St & Waverly Ave'
p842
aF40.68317813
aF-73.9659641
asg1
(g5
S'\x81\x01\x00\x00\x00\x00\x00\x00'
p843
tp844
Rp845
(lp846
S'E 55 St & 2 Ave'
p847
aF40.75797322
aF-73.96603308
asg1
(g5
S'\x82\x01\x00\x00\x00\x00\x00\x00'
p848
tp849
Rp850
(lp851
S'Centre St & Worth St'
p852
aF40.71494807
aF-74.00234482
asg1
(g5
S'\x83\x01\x00\x00\x00\x00\x00\x00'
p853
tp854
Rp855
(lp856
S'Centre St & Chambers St'
p857
aF40.71273266
aF-74.0046073
asg1
(g5
S'\x84\x01\x00\x00\x00\x00\x00\x00'
p858
tp859
Rp860
(lp861
S'W 26 St & 10 Ave'
p862
aF40.749717753
aF-74.002950346
asg1
(g5
S'\x85\x01\x00\x00\x00\x00\x00\x00'
p863
tp864
Rp865
(lp866
S'Broadway & Berry St'
p867
aF40.71044554
aF-73.96525063
asg1
(g5
S'\x86\x01\x00\x00\x00\x00\x00\x00'
p868
tp869
Rp870
(lp871
S'Duffield St & Willoughby St'
p872
aF40.69221589
aF-73.9842844
asg1
(g5
S'\x87\x01\x00\x00\x00\x00\x00\x00'
p873
tp874
Rp875
(lp876
S'Clark St & Henry St'
p877
aF40.69760127
aF-73.99344559
asg1
(g5
S'\x88\x01\x00\x00\x00\x00\x00\x00'
p878
tp879
Rp880
(lp881
S'Jay St & Tech Pl'
p882
aF40.695065
aF-73.987167
asg1
(g5
S'\x89\x01\x00\x00\x00\x00\x00\x00'
p883
tp884
Rp885
(lp886
S'E 5 St & Avenue C'
p887
aF40.72299208
aF-73.97995466
asg1
(g5
S'\x8a\x01\x00\x00\x00\x00\x00\x00'
p888
tp889
Rp890
(lp891
S'E 9 St & Avenue C'
p892
aF40.72521311
aF-73.97768752
asg1
(g5
S'\x8b\x01\x00\x00\x00\x00\x00\x00'
p893
tp894
Rp895
(lp896
S'Bond St & Schermerhorn St'
p897
aF40.68807003
aF-73.98410637
asg1
(g5
S'\x8c\x01\x00\x00\x00\x00\x00\x00'
p898
tp899
Rp900
(lp901
S'Lefferts Pl & Franklin Ave'
p902
aF40.680342423
aF-73.9557689392
asg1
(g5
S'\x8d\x01\x00\x00\x00\x00\x00\x00'
p903
tp904
Rp905
(lp906
S'Fulton St & Clermont Ave'
p907
aF40.68415748
aF-73.96922273
asg1
(g5
S'\x8e\x01\x00\x00\x00\x00\x00\x00'
p908
tp909
Rp910
(lp911
S'Atlantic Ave & Furman St'
p912
aF40.69165183
aF-73.99997859999999
asg1
(g5
S'\x8f\x01\x00\x00\x00\x00\x00\x00'
p913
tp914
Rp915
(lp916
S'Lafayette Ave & St James Pl'
p917
aF40.68851534
aF-73.9647628
asg1
(g5
S'\x90\x01\x00\x00\x00\x00\x00\x00'
p918
tp919
Rp920
(lp921
S'Pitt St & Stanton St'
p922
aF40.71926081
aF-73.98178024
asg1
(g5
S'\x91\x01\x00\x00\x00\x00\x00\x00'
p923
tp924
Rp925
(lp926
S'Allen St & Rivington St'
p927
aF40.72019576
aF-73.98997825
asg1
(g5
S'\x92\x01\x00\x00\x00\x00\x00\x00'
p928
tp929
Rp930
(lp931
S'Broadway & E 22 St'
p932
aF40.740343200000005
aF-73.98955109
asg1
(g5
S'\x93\x01\x00\x00\x00\x00\x00\x00'
p933
tp934
Rp935
(lp936
S'E 2 St & 2 Ave'
p937
aF40.72502876
aF-73.99069656
asg1
(g5
S'\x94\x01\x00\x00\x00\x00\x00\x00'
p938
tp939
Rp940
(lp941
S'9 Ave & W 14 St'
p942
aF40.7405826
aF-74.00550867
asg1
(g5
S'\x95\x01\x00\x00\x00\x00\x00\x00'
p943
tp944
Rp945
(lp946
S'Washington St & Gansevoort St'
p947
aF40.739323
aF-74.008119
asg1
(g5
S'\x96\x01\x00\x00\x00\x00\x00\x00'
p948
tp949
Rp950
(lp951
S'Hicks St & Montague St'
p952
aF40.69512845
aF-73.99595065
asg1
(g5
S'\x97\x01\x00\x00\x00\x00\x00\x00'
p953
tp954
Rp955
(lp956
S'Henry St & Poplar St'
p957
aF40.700469
aF-73.991454
asg1
(g5
S'\x98\x01\x00\x00\x00\x00\x00\x00'
p958
tp959
Rp960
(lp961
S'Market St & Cherry St'
p962
aF40.71076228
aF-73.99400398
asg1
(g5
S'\x99\x01\x00\x00\x00\x00\x00\x00'
p963
tp964
Rp965
(lp966
S'DeKalb Ave & Skillman St'
p967
aF40.6906495
aF-73.95643107
asg1
(g5
S'\x9a\x01\x00\x00\x00\x00\x00\x00'
p968
tp969
Rp970
(lp971
S'Suffolk St & Stanton St'
p972
aF40.72066442
aF-73.98517977
asg1
(g5
S'\x9b\x01\x00\x00\x00\x00\x00\x00'
p973
tp974
Rp975
(lp976
S'E 6 St & Avenue D'
p977
aF40.72228087
aF-73.97668709
asg1
(g5
S'\x9c\x01\x00\x00\x00\x00\x00\x00'
p978
tp979
Rp980
(lp981
S'Forsyth St & Canal St'
p982
aF40.715815500000005
aF-73.99422366
asg1
(g5
S'\x9e\x01\x00\x00\x00\x00\x00\x00'
p983
tp984
Rp985
(lp986
S'Pearl St & Anchorage Pl'
p987
aF40.70281858
aF-73.98765762
asg1
(g5
S'\x9f\x01\x00\x00\x00\x00\x00\x00'
p988
tp989
Rp990
(lp991
S'Pearl St & Hanover Square'
p992
aF40.7047177
aF-74.00926027
asg1
(g5
S'\xa0\x01\x00\x00\x00\x00\x00\x00'
p993
tp994
Rp995
(lp996
S'Cumberland St & Lafayette Ave'
p997
aF40.68753406
aF-73.97265183
asg1
(g5
S'\xa1\x01\x00\x00\x00\x00\x00\x00'
p998
tp999
Rp1000
(lp1001
S'Barclay St & Church St'
p1002
aF40.71291224
aF-74.01020234
asg1
(g5
S'\xa2\x01\x00\x00\x00\x00\x00\x00'
p1003
tp1004
Rp1005
(lp1006
S'Front St & Gold St'
p1007
aF40.70224
aF-73.982578
asg1
(g5
S'\xa3\x01\x00\x00\x00\x00\x00\x00'
p1008
tp1009
Rp1010
(lp1011
S'Carlton Ave & Park Ave'
p1012
aF40.69580705
aF-73.97355569
asg1
(g5
S'\xa4\x01\x00\x00\x00\x00\x00\x00'
p1013
tp1014
Rp1015
(lp1016
S'Clermont Ave & Lafayette Ave'
p1017
aF40.68764484
aF-73.96968902
asg1
(g5
S'\xa5\x01\x00\x00\x00\x00\x00\x00'
p1018
tp1019
Rp1020
(lp1021
S'Clermont Ave & Park Ave'
p1022
aF40.69573398
aF-73.97129668
asg1
(g5
S'\xa6\x01\x00\x00\x00\x00\x00\x00'
p1023
tp1024
Rp1025
(lp1026
S'W 59 St & 10 Ave'
p1027
aF40.770513
aF-73.988038
asg1
(g5
S'\xa7\x01\x00\x00\x00\x00\x00\x00'
p1028
tp1029
Rp1030
(lp1031
S'W 54 St & 9 Ave'
p1032
aF40.76584941
aF-73.98690506
asg1
(g5
S'\xaa\x01\x00\x00\x00\x00\x00\x00'
p1033
tp1034
Rp1035
(lp1036
S'West St & Chambers St'
p1037
aF40.71754834
aF-74.01322069
asg1
(g5
S'\xab\x01\x00\x00\x00\x00\x00\x00'
p1038
tp1039
Rp1040
(lp1041
S'State St'
p1042
aF40.701907
aF-74.013942
asg1
(g5
S'\xac\x01\x00\x00\x00\x00\x00\x00'
p1043
tp1044
Rp1045
(lp1046
S'E 3 St & 1 Ave'
p1047
aF40.72467721
aF-73.98783413
asg1
(g5
S'\xae\x01\x00\x00\x00\x00\x00\x00'
p1048
tp1049
Rp1050
(lp1051
S'York St & Jay St'
p1052
aF40.7014851
aF-73.98656928
asg1
(g5
S'\xaf\x01\x00\x00\x00\x00\x00\x00'
p1053
tp1054
Rp1055
(lp1056
S'Hanover Pl & Livingston St'
p1057
aF40.68864636
aF-73.98263429
asg1
(g5
S'\xb0\x01\x00\x00\x00\x00\x00\x00'
p1058
tp1059
Rp1060
(lp1061
S'E 7 St & Avenue A'
p1062
aF40.72621788
aF-73.98379855
asg1
(g5
S'\xb1\x01\x00\x00\x00\x00\x00\x00'
p1063
tp1064
Rp1065
(lp1066
S'E 13 St & Avenue A'
p1067
aF40.72955361
aF-73.98057249
asg1
(g5
S'\xb2\x01\x00\x00\x00\x00\x00\x00'
p1068
tp1069
Rp1070
(lp1071
S'9 Ave & W 18 St'
p1072
aF40.74317449
aF-74.00366443
asg1
(g5
S'\xb3\x01\x00\x00\x00\x00\x00\x00'
p1073
tp1074
Rp1075
(lp1076
S'W 21 St & 6 Ave'
p1077
aF40.74173969
aF-73.99415556
asg1
(g5
S'\xb4\x01\x00\x00\x00\x00\x00\x00'
p1078
tp1079
Rp1080
(lp1081
S'Hancock St & Bedford Ave'
p1082
aF40.68216564
aF-73.95399026
asg1
(g5
S'\xb5\x01\x00\x00\x00\x00\x00\x00'
p1083
tp1084
Rp1085
(lp1086
S'Macon St & Nostrand Ave'
p1087
aF40.6809833854
aF-73.9500479759
asg1
(g5
S'\xb6\x01\x00\x00\x00\x00\x00\x00'
p1088
tp1089
Rp1090
(lp1091
S'St Marks Pl & 1 Ave'
p1092
aF40.72779126
aF-73.98564945
asg1
(g5
S'\xb7\x01\x00\x00\x00\x00\x00\x00'
p1093
tp1094
Rp1095
(lp1096
S'E 4 St & 2 Ave'
p1097
aF40.726280700000004
aF-73.98978041
asg1
(g5
S'\xb8\x01\x00\x00\x00\x00\x00\x00'
p1098
tp1099
Rp1100
(lp1101
S'E 45 St & 3 Ave'
p1102
aF40.75255434
aF-73.97282625
asg1
(g5
S'\xb9\x01\x00\x00\x00\x00\x00\x00'
p1103
tp1104
Rp1105
(lp1106
S'E 52 St & 2 Ave'
p1107
aF40.756014
aF-73.967416
asg1
(g5
S'\xba\x01\x00\x00\x00\x00\x00\x00'
p1108
tp1109
Rp1110
(lp1111
S'W 27 St & 7 Ave'
p1112
aF40.746646999999996
aF-73.993915
asg1
(g5
S'\xbb\x01\x00\x00\x00\x00\x00\x00'
p1113
tp1114
Rp1115
(lp1116
S'Bedford Ave & S 9th St'
p1117
aF40.70853074
aF-73.96408963
asg1
(g5
S'\xbc\x01\x00\x00\x00\x00\x00\x00'
p1118
tp1119
Rp1120
(lp1121
S'Broadway & W 24 St'
p1122
aF40.742354299999995
aF-73.98915076
asg1
(g5
S'\xbd\x01\x00\x00\x00\x00\x00\x00'
p1123
tp1124
Rp1125
(lp1126
S'E 10 St & Avenue A'
p1127
aF40.72740794
aF-73.98142006
asg1
(g5
S'\xbe\x01\x00\x00\x00\x00\x00\x00'
p1128
tp1129
Rp1130
(lp1131
S'W 24 St & 7 Ave'
p1132
aF40.74487634
aF-73.99529885
asg1
(g5
S'\xbf\x01\x00\x00\x00\x00\x00\x00'
p1133
tp1134
Rp1135
(lp1136
S'8 Ave & W 52 St'
p1137
aF40.76370739
aF-73.9851615
asg1
(g5
S'\xc0\x01\x00\x00\x00\x00\x00\x00'
p1138
tp1139
Rp1140
(lp1141
S'W 37 St & 10 Ave'
p1142
aF40.75660359
aF-73.9979009
asg1
(g5
S'\xc1\x01\x00\x00\x00\x00\x00\x00'
p1143
tp1144
Rp1145
(lp1146
S'W 52 St & 9 Ave'
p1147
aF40.76461837
aF-73.98789473
asg1
(g5
S'\xc2\x01\x00\x00\x00\x00\x00\x00'
p1148
tp1149
Rp1150
(lp1151
S'W 49 St & 8 Ave'
p1152
aF40.76227205
aF-73.98788205
asg1
(g5
S'\xc5\x01\x00\x00\x00\x00\x00\x00'
p1153
tp1154
Rp1155
(lp1156
S'W 22 St & 8 Ave'
p1157
aF40.74475148
aF-73.99915362
asg1
(g5
S'\xc6\x01\x00\x00\x00\x00\x00\x00'
p1158
tp1159
Rp1160
(lp1161
S'E 51 St & 1 Ave'
p1162
aF40.75455731
aF-73.96592976
asg1
(g5
S'\xc7\x01\x00\x00\x00\x00\x00\x00'
p1163
tp1164
Rp1165
(lp1166
S'1 Ave & E 44 St'
p1167
aF40.75001986
aF-73.96905301
asg1
(g5
S'\xc8\x01\x00\x00\x00\x00\x00\x00'
p1168
tp1169
Rp1170
(lp1171
S'E 53 St & Madison Ave'
p1172
aF40.75971079999999
aF-73.97402311
asg1
(g5
S'\xc9\x01\x00\x00\x00\x00\x00\x00'
p1173
tp1174
Rp1175
(lp1176
S'Broadway & W 58 St'
p1177
aF40.76695317
aF-73.98169333
asg1
(g5
S'\xca\x01\x00\x00\x00\x00\x00\x00'
p1178
tp1179
Rp1180
(lp1181
S'11 Ave & W 27 St'
p1182
aF40.751396
aF-74.00522600000001
asg1
(g5
S'\xcb\x01\x00\x00\x00\x00\x00\x00'
p1183
tp1184
Rp1185
(lp1186
S'W 20 St & 11 Ave'
p1187
aF40.746745000000004
aF-74.007756
asg1
(g5
S'\xcc\x01\x00\x00\x00\x00\x00\x00'
p1188
tp1189
Rp1190
(lp1191
S'S 4 St & Wythe Ave'
p1192
aF40.71285887
aF-73.96590294
asg1
(g5
S'\xcd\x01\x00\x00\x00\x00\x00\x00'
p1193
tp1194
Rp1195
(lp1196
S'E 20 St & 2 Ave'
p1197
aF40.73587678
aF-73.98205027
asg1
(g5
S'\xce\x01\x00\x00\x00\x00\x00\x00'
p1198
tp1199
Rp1200
(lp1201
S'W 22 St & 10 Ave'
p1202
aF40.74691959
aF-74.00451887
asg1
(g5
S'\xcf\x01\x00\x00\x00\x00\x00\x00'
p1203
tp1204
Rp1205
(lp1206
S'9 Ave & W 16 St'
p1207
aF40.74206539
aF-74.00443172
asg1
(g5
S'\xd0\x01\x00\x00\x00\x00\x00\x00'
p1208
tp1209
Rp1210
(lp1211
S'E 56 St & 3 Ave'
p1212
aF40.75934501
aF-73.96759673
asg1
(g5
S'\xd1\x01\x00\x00\x00\x00\x00\x00'
p1213
tp1214
Rp1215
(lp1216
S'Broadway & W 41 St'
p1217
aF40.75513557
aF-73.98658032
asg1
(g5
S'\xd2\x01\x00\x00\x00\x00\x00\x00'
p1218
tp1219
Rp1220
(lp1221
S'W 25 St & 6 Ave'
p1222
aF40.74395411
aF-73.99144871
asg1
(g5
S'\xd3\x01\x00\x00\x00\x00\x00\x00'
p1223
tp1224
Rp1225
(lp1226
S'Dean St & 4 Ave'
p1227
aF40.68312489
aF-73.97895137
asg1
(g5
S'\xd4\x01\x00\x00\x00\x00\x00\x00'
p1228
tp1229
Rp1230
(lp1231
S'Broadway & W 55 St'
p1232
aF40.7652654
aF-73.98192338
asg1
(g5
S'\xd5\x01\x00\x00\x00\x00\x00\x00'
p1233
tp1234
Rp1235
(lp1236
S'Broadway & W 53 St'
p1237
aF40.76344058
aF-73.98268129
asg1
(g5
S'\xd6\x01\x00\x00\x00\x00\x00\x00'
p1238
tp1239
Rp1240
(lp1241
S'W 20 St & 8 Ave'
p1242
aF40.74345335
aF-74.00004031
asg1
(g5
S'\xd7\x01\x00\x00\x00\x00\x00\x00'
p1243
tp1244
Rp1245
(lp1246
S'Grand St & Havemeyer St'
p1247
aF40.71286844
aF-73.95698119
asg1
(g5
S'\xd8\x01\x00\x00\x00\x00\x00\x00'
p1248
tp1249
Rp1250
(lp1251
S'E 32 St & Park Ave'
p1252
aF40.745712100000006
aF-73.98194829
asg1
(g5
S'\xd9\x01\x00\x00\x00\x00\x00\x00'
p1253
tp1254
Rp1255
(lp1256
S'Rivington St & Chrystie St'
p1257
aF40.72110063
aF-73.99192540000001
asg1
(g5
S'\xda\x01\x00\x00\x00\x00\x00\x00'
p1258
tp1259
Rp1260
(lp1261
S'5 Ave & E 29 St'
p1262
aF40.7451677
aF-73.98683077
asg1
(g5
S'\xdb\x01\x00\x00\x00\x00\x00\x00'
p1263
tp1264
Rp1265
(lp1266
S'E 16 St & Irving Pl'
p1267
aF40.73524276
aF-73.98758561
asg1
(g5
S'\xdc\x01\x00\x00\x00\x00\x00\x00'
p1268
tp1269
Rp1270
(lp1271
S'E 31 St & 3 Ave'
p1272
aF40.74394314
aF-73.97966069
asg1
(g5
S'\xdd\x01\x00\x00\x00\x00\x00\x00'
p1273
tp1274
Rp1275
(lp1276
S'W 41 St & 8 Ave'
p1277
aF40.75640548
aF-73.9900262
asg1
(g5
S'\xde\x01\x00\x00\x00\x00\x00\x00'
p1278
tp1279
Rp1280
(lp1281
S'11 Ave & W 41 St'
p1282
aF40.76030096
aF-73.99884222
asg1
(g5
S'\xdf\x01\x00\x00\x00\x00\x00\x00'
p1283
tp1284
Rp1285
(lp1286
S'9 Ave & W 45 St'
p1287
aF40.76019252
aF-73.9912551
asg1
(g5
S'\xe0\x01\x00\x00\x00\x00\x00\x00'
p1288
tp1289
Rp1290
(lp1291
S'W 53 St & 10 Ave'
p1292
aF40.76669671
aF-73.99061728
asg1
(g5
S'\xe1\x01\x00\x00\x00\x00\x00\x00'
p1293
tp1294
Rp1295
(lp1296
S'S 3 St & Bedford Ave'
p1297
aF40.71260486
aF-73.96264403
asg1
(g5
S'\xe2\x01\x00\x00\x00\x00\x00\x00'
p1298
tp1299
Rp1300
(lp1301
S'W 15 St & 7 Ave'
p1302
aF40.73935542
aF-73.99931783
asg1
(g5
S'\xe3\x01\x00\x00\x00\x00\x00\x00'
p1303
tp1304
Rp1305
(lp1306
S'E 12 St & 3 Ave'
p1307
aF40.73223272
aF-73.98889957
asg1
(g5
S'\xe4\x01\x00\x00\x00\x00\x00\x00'
p1308
tp1309
Rp1310
(lp1311
S'W 44 St & 5 Ave'
p1312
aF40.75500254
aF-73.98014437
asg1
(g5
S'\xe5\x01\x00\x00\x00\x00\x00\x00'
p1313
tp1314
Rp1315
(lp1316
S'W 37 St & 5 Ave'
p1317
aF40.75038009
aF-73.98338988
asg1
(g5
S'\xe6\x01\x00\x00\x00\x00\x00\x00'
p1318
tp1319
Rp1320
(lp1321
S'Broadway & W 29 St'
p1322
aF40.7462009
aF-73.98855723
asg1
(g5
S'\xe7\x01\x00\x00\x00\x00\x00\x00'
p1323
tp1324
Rp1325
(lp1326
S'E 20 St & FDR Drive'
p1327
aF40.73314259
aF-73.97573881
asg1
(g5
S'\xe8\x01\x00\x00\x00\x00\x00\x00'
p1328
tp1329
Rp1330
(lp1331
S'W 39 St & 9 Ave'
p1332
aF40.75645824
aF-73.99372222
asg1
(g5
S'\xe9\x01\x00\x00\x00\x00\x00\x00'
p1333
tp1334
Rp1335
(lp1336
S'10 Ave & W 28 St'
p1337
aF40.75066386
aF-74.00176802
asg1
(g5
S'\xea\x01\x00\x00\x00\x00\x00\x00'
p1338
tp1339
Rp1340
(lp1341
S'8 Ave & W 33 St'
p1342
aF40.751551
aF-73.993934
asg1
(g5
S'\xeb\x01\x00\x00\x00\x00\x00\x00'
p1343
tp1344
Rp1345
(lp1346
S'E 24 St & Park Ave S'
p1347
aF40.74096374
aF-73.98602213
asg1
(g5
S'\xec\x01\x00\x00\x00\x00\x00\x00'
p1348
tp1349
Rp1350
(lp1351
S'W 33 St & 7 Ave'
p1352
aF40.75019995
aF-73.99093085
asg1
(g5
S'\xed\x01\x00\x00\x00\x00\x00\x00'
p1353
tp1354
Rp1355
(lp1356
S'W 45 St & 6 Ave'
p1357
aF40.7568001
aF-73.98291153
asg1
(g5
S'\xee\x01\x00\x00\x00\x00\x00\x00'
p1358
tp1359
Rp1360
(lp1361
S'W 26 St & 8 Ave'
p1362
aF40.74734825
aF-73.99723551
asg1
(g5
S'\xef\x01\x00\x00\x00\x00\x00\x00'
p1363
tp1364
Rp1365
(lp1366
S'W 47 St & 10 Ave'
p1367
aF40.76269882
aF-73.99301222
asg1
(g5
S'\xf0\x01\x00\x00\x00\x00\x00\x00'
p1368
tp1369
Rp1370
(lp1371
S'E 16 St & 5 Ave'
p1372
aF40.73726186
aF-73.99238967
asg1
(g5
S'\xf1\x01\x00\x00\x00\x00\x00\x00'
p1373
tp1374
Rp1375
(lp1376
S'E 17 St & Broadway'
p1377
aF40.73704984
aF-73.99009296
asg1
(g5
S'\xf2\x01\x00\x00\x00\x00\x00\x00'
p1378
tp1379
Rp1380
(lp1381
S'Broadway & W 32 St'
p1382
aF40.74854862
aF-73.98808416
asg1
(g5
S'\xf3\x01\x00\x00\x00\x00\x00\x00'
p1383
tp1384
Rp1385
(lp1386
S'Broadway & W 60 St'
p1387
aF40.76915505
aF-73.98191841
asg1
(g5
S'\xf4\x01\x00\x00\x00\x00\x00\x00'
p1388
tp1389
Rp1390
(lp1391
S'Broadway & W 51 St'
p1392
aF40.76228826
aF-73.98336183
asg1
(g5
S'\xf5\x01\x00\x00\x00\x00\x00\x00'
p1393
tp1394
Rp1395
(lp1396
S'FDR Drive & E 35 St'
p1397
aF40.744219
aF-73.97121214
asg1
(g5
S'\xf6\x01\x00\x00\x00\x00\x00\x00'
p1398
tp1399
Rp1400
(lp1401
S'Henry St & Grand St'
p1402
aF40.714215
aF-73.981346
asg1
(g5
S'\xf7\x01\x00\x00\x00\x00\x00\x00'
p1403
tp1404
Rp1405
(lp1406
S'E 20 St & Park Ave'
p1407
aF40.73827428
aF-73.98751968
asg1
(g5
S'\xf8\x01\x00\x00\x00\x00\x00\x00'
p1408
tp1409
Rp1410
(lp1411
S'1 Ave & E 15 St'
p1412
aF40.73221853
aF-73.98165557
asg1
(g5
S'\xf9\x01\x00\x00\x00\x00\x00\x00'
p1413
tp1414
Rp1415
(lp1416
S'6 Ave & W 33 St'
p1417
aF40.74901271
aF-73.98848395
asg1
(g5
S'\xfb\x01\x00\x00\x00\x00\x00\x00'
p1418
tp1419
Rp1420
(lp1421
S'E 25 St & 2 Ave'
p1422
aF40.73912601
aF-73.97973776
asg1
(g5
S'\xfc\x01\x00\x00\x00\x00\x00\x00'
p1423
tp1424
Rp1425
(lp1426
S'W 46 St & 11 Ave'
p1427
aF40.76341379
aF-73.99667444
asg1
(g5
S'\xfd\x01\x00\x00\x00\x00\x00\x00'
p1428
tp1429
Rp1430
(lp1431
S'9 Ave & W 22 St'
p1432
aF40.7454973
aF-74.00197139
asg1
(g5
S'\xfe\x01\x00\x00\x00\x00\x00\x00'
p1433
tp1434
Rp1435
(lp1436
S'W 51 St & 6 Ave'
p1437
aF40.7606597
aF-73.98042047
asg1
(g5
S'\xff\x01\x00\x00\x00\x00\x00\x00'
p1438
tp1439
Rp1440
(lp1441
S'E 14 St & Avenue B'
p1442
aF40.72938685
aF-73.97772429
asg1
(g5
S'\x00\x02\x00\x00\x00\x00\x00\x00'
p1443
tp1444
Rp1445
(lp1446
S'W 29 St & 9 Ave'
p1447
aF40.750072700000004
aF-73.99839279
asg1
(g5
S'\x01\x02\x00\x00\x00\x00\x00\x00'
p1448
tp1449
Rp1450
(lp1451
S'W 56 St & 10 Ave'
p1452
aF40.768254
aF-73.988639
asg1
(g5
S'\x02\x02\x00\x00\x00\x00\x00\x00'
p1453
tp1454
Rp1455
(lp1456
S'12 Ave & W 40 St'
p1457
aF40.76087502
aF-74.00277668
asg1
(g5
S'\x03\x02\x00\x00\x00\x00\x00\x00'
p1458
tp1459
Rp1460
(lp1461
S'W 43 St & 10 Ave'
p1462
aF40.76009437
aF-73.99461843
asg1
(g5
S'\x04\x02\x00\x00\x00\x00\x00\x00'
p1463
tp1464
Rp1465
(lp1466
S'E 47 St & 1 Ave'
p1467
aF40.75206862
aF-73.96784384
asg1
(g5
S'\x05\x02\x00\x00\x00\x00\x00\x00'
p1468
tp1469
Rp1470
(lp1471
S'Pershing Square S'
p1472
aF40.751581
aF-73.97791
asg1
(g5
S'\x06\x02\x00\x00\x00\x00\x00\x00'
p1473
tp1474
Rp1475
(lp1476
S'E 39 St & 2 Ave'
p1477
aF40.74780373
aF-73.97344190000001
asg1
(g5
S'\x07\x02\x00\x00\x00\x00\x00\x00'
p1478
tp1479
Rp1480
(lp1481
S'Pershing Square N'
p1482
aF40.751872999999996
aF-73.97770600000001
asg1
(g5
S'\x08\x02\x00\x00\x00\x00\x00\x00'
p1483
tp1484
Rp1485
(lp1486
S'W 52 St & 5 Ave'
p1487
aF40.75992262
aF-73.97648516
asg1
(g5
S'\t\x02\x00\x00\x00\x00\x00\x00'
p1488
tp1489
Rp1490
(lp1491
S'8 Ave & W 31 St'
p1492
aF40.75044999
aF-73.99481051
asg1
(g5
S'\n\x02\x00\x00\x00\x00\x00\x00'
p1493
tp1494
Rp1495
(lp1496
S'E 51 St & Lexington Ave'
p1497
aF40.75714758
aF-73.97207836
asg1
(g5
S'\x0b\x02\x00\x00\x00\x00\x00\x00'
p1498
tp1499
Rp1500
(lp1501
S'W 38 St & 8 Ave'
p1502
aF40.75466591
aF-73.99138152
asg1
(g5
S'\x0c\x02\x00\x00\x00\x00\x00\x00'
p1503
tp1504
Rp1505
(lp1506
S'W 43 St & 6 Ave'
p1507
aF40.75527307
aF-73.98316936
asg1
(g5
S'\r\x02\x00\x00\x00\x00\x00\x00'
p1508
tp1509
Rp1510
(lp1511
S'W 34 St & 11 Ave'
p1512
aF40.75594159
aF-74.0021163
asg1
(g5
S'\x0e\x02\x00\x00\x00\x00\x00\x00'
p1513
tp1514
Rp1515
(lp1516
S'E 33 St & 5 Ave'
p1517
aF40.74765947
aF-73.98490707
asg1
(g5
S'\x0f\x02\x00\x00\x00\x00\x00\x00'
p1518
tp1519
Rp1520
(lp1521
S'E 33 St & 1 Ave'
p1522
aF40.744023
aF-73.976056
asg1
(g5
S'\x10\x02\x00\x00\x00\x00\x00\x00'
p1523
tp1524
Rp1525
(lp1526
S'2 Ave & E 31 St'
p1527
aF40.74290902
aF-73.97706058
asg1
(g5
S'\x11\x02\x00\x00\x00\x00\x00\x00'
p1528
tp1529
Rp1530
(lp1531
S'W 42 St & 8 Ave'
p1532
aF40.75756989999999
aF-73.99098507
asg1
(g5
S'\x12\x02\x00\x00\x00\x00\x00\x00'
p1533
tp1534
Rp1535
(lp1536
S'11 Ave & W 59 St'
p1537
aF40.771522
aF-73.99054100000001
asg1
(g5
S'\x13\x02\x00\x00\x00\x00\x00\x00'
p1538
tp1539
Rp1540
(lp1541
S'Forsyth St & Broome St'
p1542
aF40.71893904
aF-73.99266288
asg1
(g5
S'\x14\x02\x00\x00\x00\x00\x00\x00'
p1543
tp1544
Rp1545
(lp1546
S'S 5 Pl & S 4 St'
p1547
aF40.710451
aF-73.960876
asg1
(g5
S'\x15\x02\x00\x00\x00\x00\x00\x00'
p1548
tp1549
Rp1550
(lp1551
S'Broadway & W 39 St'
p1552
aF40.75299641
aF-73.98721619
asg1
(g5
S'\x16\x02\x00\x00\x00\x00\x00\x00'
p1553
tp1554
Rp1555
(lp1556
S'Water - Whitehall Plaza'
p1557
aF40.70255065
aF-74.0127234
asg1
(g5
S'\x18\x02\x00\x00\x00\x00\x00\x00'
p1558
tp1559
Rp1560
(lp1561
S'1 Ave & E 30 St'
p1562
aF40.74144387
aF-73.97536082
asg1
(g5
S'\x19\x02\x00\x00\x00\x00\x00\x00'
p1563
tp1564
Rp1565
(lp1566
S'Lexington Ave & E 24 St'
p1567
aF40.74025878
aF-73.98409214
asg1
(g5
S'\x1a\x02\x00\x00\x00\x00\x00\x00'
p1568
tp1569
Rp1570
(lp1571
S'W 49 St & 5 Ave'
p1572
aF40.75795248
aF-73.97787642
asg1
(g5
S'\x1b\x02\x00\x00\x00\x00\x00\x00'
p1573
tp1574
Rp1575
(lp1576
S'Metropolitan Ave & Bedford Ave'
p1577
aF40.71534825
aF-73.96024116
asg1
(g5
S'\x1c\x02\x00\x00\x00\x00\x00\x00'
p1578
tp1579
Rp1580
(lp1581
S'Lexington Ave & E 26 St'
p1582
aF40.74147286
aF-73.98320928
asg1
(g5
S'!\x02\x00\x00\x00\x00\x00\x00'
p1583
tp1584
Rp1585
(lp1586
S'E 23 St & 1 Ave'
p1587
aF40.736502
aF-73.97809472
asg1
(g5
S'"\x02\x00\x00\x00\x00\x00\x00'
p1588
tp1589
Rp1590
(lp1591
S'E 30 St & Park Ave S'
p1592
aF40.74444921
aF-73.98303529
asg1
(g5
S'\xba\x0b\x00\x00\x00\x00\x00\x00'
p1593
tp1594
Rp1595
(lp1596
S'South End Ave & Liberty St'
p1597
aF40.711512
aF-74.01575600000001
asg1
(g5
S'\xc6\x0b\x00\x00\x00\x00\x00\x00'
p1598
tp1599
Rp1600
(lp1601
S'E.T. Bike-In Movie Valet Station '
p1602
aF40.722852
aF-73.959114
asg1
(g5
S'\xc8\x0b\x00\x00\x00\x00\x00\x00'
p1603
tp1604
Rp1605
(lp1606
S'Mobile 01'
p1607
aF40.7710518564
aF-73.9643383026
asg1
(g5
S'\xe1\x0b\x00\x00\x00\x00\x00\x00'
p1608
tp1609
Rp1610
(lp1611
S'Kingston Ave & Herkimer St'
p1612
aF40.67890679
aF-73.94142771
asg1
(g5
S'\xe2\x0b\x00\x00\x00\x00\x00\x00'
p1613
tp1614
Rp1615
(lp1616
S'Fulton St & Utica Ave'
p1617
aF40.6794268
aF-73.92989109999999
asg1
(g5
S'\xe3\x0b\x00\x00\x00\x00\x00\x00'
p1618
tp1619
Rp1620
(lp1621
S'Lewis Ave & Decatur St'
p1622
aF40.6814598
aF-73.934903
asg1
(g5
S'\xe4\x0b\x00\x00\x00\x00\x00\x00'
p1623
tp1624
Rp1625
(lp1626
S'Albany Ave & Fulton St'
p1627
aF40.6800105
aF-73.938475
asg1
(g5
S'\xe6\x0b\x00\x00\x00\x00\x00\x00'
p1628
tp1629
Rp1630
(lp1631
S'Marcus Garvey Blvd & Macon St'
p1632
aF40.682601
aF-73.938037
asg1
(g5
S'\xe7\x0b\x00\x00\x00\x00\x00\x00'
p1633
tp1634
Rp1635
(lp1636
S'Halsey St & Tompkins Ave'
p1637
aF40.682368700000005
aF-73.944118
asg1
(g5
S'\xe8\x0b\x00\x00\x00\x00\x00\x00'
p1638
tp1639
Rp1640
(lp1641
S'Putnam Ave & Nostrand Ave'
p1642
aF40.684020000000004
aF-73.94977
asg1
(g5
S'\xe9\x0b\x00\x00\x00\x00\x00\x00'
p1643
tp1644
Rp1645
(lp1646
S'Cambridge Pl & Gates Ave'
p1647
aF40.68488
aF-73.96304
asg1
(g5
S'\xea\x0b\x00\x00\x00\x00\x00\x00'
p1648
tp1649
Rp1650
(lp1651
S'Putnam Ave & Throop Ave'
p1652
aF40.6851532
aF-73.94111
asg1
(g5
S'\xec\x0b\x00\x00\x00\x00\x00\x00'
p1653
tp1654
Rp1655
(lp1656
S'Lewis Ave & Madison St'
p1657
aF40.686312
aF-73.935775
asg1
(g5
S'\xed\x0b\x00\x00\x00\x00\x00\x00'
p1658
tp1659
Rp1660
(lp1661
S'Marcy Ave & Lafayette Ave'
p1662
aF40.6900815
aF-73.94791500000001
asg1
(g5
S'\xee\x0b\x00\x00\x00\x00\x00\x00'
p1663
tp1664
Rp1665
(lp1666
S'Greene Ave & Throop Ave'
p1667
aF40.6894932
aF-73.942061
asg1
(g5
S'\xef\x0b\x00\x00\x00\x00\x00\x00'
p1668
tp1669
Rp1670
(lp1671
S'Greene Ave & Nostrand Ave'
p1672
aF40.68833370000001
aF-73.950916
asg1
(g5
S'\xf0\x0b\x00\x00\x00\x00\x00\x00'
p1673
tp1674
Rp1675
(lp1676
S'Kosciuszko St & Nostrand Ave'
p1677
aF40.69072549
aF-73.95133465
asg1
(g5
S'\xf1\x0b\x00\x00\x00\x00\x00\x00'
p1678
tp1679
Rp1680
(lp1681
S'Kosciuszko St & Tompkins Ave'
p1682
aF40.69128258
aF-73.9452416
asg1
(g5
S'\xf2\x0b\x00\x00\x00\x00\x00\x00'
p1683
tp1684
Rp1685
(lp1686
S'Lewis Ave & Kosciuszko St'
p1687
aF40.69237074
aF-73.93705428
asg1
(g5
S'\xf3\x0b\x00\x00\x00\x00\x00\x00'
p1688
tp1689
Rp1690
(lp1691
S'Pulaski St & Marcus Garvey Blvd'
p1692
aF40.693398200000004
aF-73.939877
asg1
(g5
S'\xf4\x0b\x00\x00\x00\x00\x00\x00'
p1693
tp1694
Rp1695
(lp1696
S'Willoughby Ave & Tompkins Ave'
p1697
aF40.69425403
aF-73.94626915
asg1
(g5
S'\xf5\x0b\x00\x00\x00\x00\x00\x00'
p1698
tp1699
Rp1700
(lp1701
S'Throop Ave & Myrtle Ave'
p1702
aF40.69622937
aF-73.94371094
asg1
(g5
S'\xf6\x0b\x00\x00\x00\x00\x00\x00'
p1703
tp1704
Rp1705
(lp1706
S'Myrtle Ave & Marcy Ave'
p1707
aF40.69539817
aF-73.94954908
asg1
(g5
S'\xf7\x0b\x00\x00\x00\x00\x00\x00'
p1708
tp1709
Rp1710
(lp1711
S'Nostrand Ave & Myrtle Ave'
p1712
aF40.69527008
aF-73.95238108
asg1
(g5
S'\xf8\x0b\x00\x00\x00\x00\x00\x00'
p1713
tp1714
Rp1715
(lp1716
S'Myrtle Ave & Lewis Ave'
p1717
aF40.69681963
aF-73.93756926
asg1
(g5
S'\xf9\x0b\x00\x00\x00\x00\x00\x00'
p1718
tp1719
Rp1720
(lp1721
S'Union Ave & Wallabout St'
p1722
aF40.70029511
aF-73.95032283
asg1
(g5
S'\xfa\x0b\x00\x00\x00\x00\x00\x00'
p1723
tp1724
Rp1725
(lp1726
S'Tompkins Ave & Hopkins St'
p1727
aF40.69957608
aF-73.94708417
asg1
(g5
S'\xfb\x0b\x00\x00\x00\x00\x00\x00'
p1728
tp1729
Rp1730
(lp1731
S'Broadway & Whipple St'
p1732
aF40.7016657
aF-73.9437303
asg1
(g5
S'\xfc\x0b\x00\x00\x00\x00\x00\x00'
p1733
tp1734
Rp1735
(lp1736
S'Humboldt St & Varet St'
p1737
aF40.7031724
aF-73.940636
asg1
(g5
S'\xfd\x0b\x00\x00\x00\x00\x00\x00'
p1738
tp1739
Rp1740
(lp1741
S'Lorimer St & Broadway'
p1742
aF40.70411791
aF-73.94818595
asg1
(g5
S'\xfe\x0b\x00\x00\x00\x00\x00\x00'
p1743
tp1744
Rp1745
(lp1746
S'McKibbin St & Manhattan Ave'
p1747
aF40.70510918
aF-73.94407279
asg1
(g5
S'\xff\x0b\x00\x00\x00\x00\x00\x00'
p1748
tp1749
Rp1750
(lp1751
S'Boerum St & Broadway'
p1752
aF40.70538077
aF-73.94976519
asg1
(g5
S'\x00\x0c\x00\x00\x00\x00\x00\x00'
p1753
tp1754
Rp1755
(lp1756
S'Leonard St & Boerum St'
p1757
aF40.70583339
aF-73.94644578
asg1
(g5
S'\x01\x0c\x00\x00\x00\x00\x00\x00'
p1758
tp1759
Rp1760
(lp1761
S'Division Ave & Hooper St'
p1762
aF40.70691254
aF-73.95441667
asg1
(g5
S'\x02\x0c\x00\x00\x00\x00\x00\x00'
p1763
tp1764
Rp1765
(lp1766
S'Montrose Ave & Bushwick Ave'
p1767
aF40.70767788
aF-73.94016171
asg1
(g5
S'\x03\x0c\x00\x00\x00\x00\x00\x00'
p1768
tp1769
Rp1770
(lp1771
S'Division Ave & Marcy Ave'
p1772
aF40.70708701
aF-73.95796783
asg1
(g5
S'\x04\x0c\x00\x00\x00\x00\x00\x00'
p1773
tp1774
Rp1775
(lp1776
S'Scholes St & Manhattan Ave'
p1777
aF40.70870368
aF-73.9448625
asg1
(g5
S'\x05\x0c\x00\x00\x00\x00\x00\x00'
p1778
tp1779
Rp1780
(lp1781
S'Stagg St & Union Ave'
p1782
aF40.70877084
aF-73.95095259
asg1
(g5
S'\x07\x0c\x00\x00\x00\x00\x00\x00'
p1783
tp1784
Rp1785
(lp1786
S'Leonard St & Grand St'
p1787
aF40.71103537
aF-73.94714303
asg1
(g5
S'\x08\x0c\x00\x00\x00\x00\x00\x00'
p1788
tp1789
Rp1790
(lp1791
S'S 4 St & Rodney St'
p1792
aF40.709340000000005
aF-73.95608
asg1
(g5
S'\t\x0c\x00\x00\x00\x00\x00\x00'
p1793
tp1794
Rp1795
(lp1796
S'Graham Ave & Grand St'
p1797
aF40.711863
aF-73.944024
asg1
(g5
S'\n\x0c\x00\x00\x00\x00\x00\x00'
p1798
tp1799
Rp1800
(lp1801
S'Hope St & Union Ave'
p1802
aF40.71167351
aF-73.95141312
asg1
(g5
S'\x0b\x0c\x00\x00\x00\x00\x00\x00'
p1803
tp1804
Rp1805
(lp1806
S'Bushwick Ave & Powers St'
p1807
aF40.71247661
aF-73.94100005
asg1
(g5
S'\x0c\x0c\x00\x00\x00\x00\x00\x00'
p1808
tp1809
Rp1810
(lp1811
S'Devoe St & Leonard St'
p1812
aF40.71348658
aF-73.94792458
asg1
(g5
S'\r\x0c\x00\x00\x00\x00\x00\x00'
p1813
tp1814
Rp1815
(lp1816
S'Roebling St & N 4 St'
p1817
aF40.714690000000004
aF-73.95739
asg1
(g5
S'\x0e\x0c\x00\x00\x00\x00\x00\x00'
p1818
tp1819
Rp1820
(lp1821
S'Graham Ave & Conselyea St'
p1822
aF40.715143
aF-73.944507
asg1
(g5
S'\x0f\x0c\x00\x00\x00\x00\x00\x00'
p1823
tp1824
Rp1825
(lp1826
S'Metropolitan Ave & Meeker Ave'
p1827
aF40.71413311
aF-73.95234386
asg1
(g5
S'\x10\x0c\x00\x00\x00\x00\x00\x00'
p1828
tp1829
Rp1830
(lp1831
S'Union Ave & Jackson St'
p1832
aF40.7160751
aF-73.95202900000001
asg1
(g5
S'\x12\x0c\x00\x00\x00\x00\x00\x00'
p1833
tp1834
Rp1835
(lp1836
S'N 8 St & Driggs Ave'
p1837
aF40.71774592
aF-73.95600096
asg1
(g5
S'\x13\x0c\x00\x00\x00\x00\x00\x00'
p1838
tp1839
Rp1840
(lp1841
S'Frost St & Meeker St'
p1842
aF40.71764
aF-73.94882
asg1
(g5
S'\x14\x0c\x00\x00\x00\x00\x00\x00'
p1843
tp1844
Rp1845
(lp1846
S'Berry St & N 8 St'
p1847
aF40.7190095
aF-73.95852515
asg1
(g5
S'\x15\x0c\x00\x00\x00\x00\x00\x00'
p1848
tp1849
Rp1850
(lp1851
S'N 6 St & Bedford Ave'
p1852
aF40.71745169
aF-73.95850939
asg1
(g5
S'\x16\x0c\x00\x00\x00\x00\x00\x00'
p1853
tp1854
Rp1855
(lp1856
S'Graham Ave & Withers St'
p1857
aF40.7169811
aF-73.94485918
asg1
(g5
S'\x17\x0c\x00\x00\x00\x00\x00\x00'
p1858
tp1859
Rp1860
(lp1861
S'Graham Ave & Herbert St'
p1862
aF40.71929301
aF-73.94500379
asg1
(g5
S'\x19\x0c\x00\x00\x00\x00\x00\x00'
p1863
tp1864
Rp1865
(lp1866
S'N Henry St & Richardson St'
p1867
aF40.71921585
aF-73.94244690000001
asg1
(g5
S'\x1a\x0c\x00\x00\x00\x00\x00\x00'
p1868
tp1869
Rp1870
(lp1871
S'Leonard St & Bayard St'
p1872
aF40.71928
aF-73.94861
asg1
(g5
S'\x1b\x0c\x00\x00\x00\x00\x00\x00'
p1873
tp1874
Rp1875
(lp1876
S'Leonard St & Manhattan Ave'
p1877
aF40.7215224034
aF-73.948982656
asg1
(g5
S'\x1d\x0c\x00\x00\x00\x00\x00\x00'
p1878
tp1879
Rp1880
(lp1881
S'N 12 St & Bedford Ave'
p1882
aF40.72079821
aF-73.95484712
asg1
(g5
S'\x1e\x0c\x00\x00\x00\x00\x00\x00'
p1883
tp1884
Rp1885
(lp1886
S'Driggs Ave & Lorimer St'
p1887
aF40.72179134
aF-73.95041540000001
asg1
(g5
S'\x1f\x0c\x00\x00\x00\x00\x00\x00'
p1888
tp1889
Rp1890
(lp1891
S'N 11 St & Wythe Ave'
p1892
aF40.72153267
aF-73.95782357
asg1
(g5
S' \x0c\x00\x00\x00\x00\x00\x00'
p1893
tp1894
Rp1895
(lp1896
S'Kent Ave & N 7 St'
p1897
aF40.72057658
aF-73.96150225
asg1
(g5
S'!\x0c\x00\x00\x00\x00\x00\x00'
p1898
tp1899
Rp1900
(lp1901
S'N 15 St & Wythe Ave'
p1902
aF40.724055
aF-73.955736
asg1
(g5
S'"\x0c\x00\x00\x00\x00\x00\x00'
p1903
tp1904
Rp1905
(lp1906
S'Driggs Ave & N Henry St'
p1907
aF40.72325
aF-73.94308000000001
asg1
(g5
S'#\x0c\x00\x00\x00\x00\x00\x00'
p1908
tp1909
Rp1910
(lp1911
S'Bedford Ave & Nassau Ave'
p1912
aF40.72311651
aF-73.95212324
asg1
(g5
S'$\x0c\x00\x00\x00\x00\x00\x00'
p1913
tp1914
Rp1915
(lp1916
S'Nassau Ave & Russell St'
p1917
aF40.725570000000005
aF-73.94434
asg1
(g5
S'%\x0c\x00\x00\x00\x00\x00\x00'
p1918
tp1919
Rp1920
(lp1921
S'Banker St & Meserole Ave'
p1922
aF40.72606
aF-73.95621
asg1
(g5
S'&\x0c\x00\x00\x00\x00\x00\x00'
p1923
tp1924
Rp1925
(lp1926
S'Meserole Ave & Manhattan Ave'
p1927
aF40.72708584
aF-73.95299117
asg1
(g5
S"'\x0c\x00\x00\x00\x00\x00\x00"
p1928
tp1929
Rp1930
(lp1931
S'Norman Ave & Leonard St'
p1932
aF40.725848299999996
aF-73.95064893
asg1
(g5
S'(\x0c\x00\x00\x00\x00\x00\x00'
p1933
tp1934
Rp1935
(lp1936
S'Milton St & Franklin St'
p1937
aF40.72906
aF-73.95779
asg1
(g5
S')\x0c\x00\x00\x00\x00\x00\x00'
p1938
tp1939
Rp1940
(lp1941
S'Greenpoint Ave & Manhattan Ave'
p1942
aF40.730259999999994
aF-73.95394
asg1
(g5
S'*\x0c\x00\x00\x00\x00\x00\x00'
p1943
tp1944
Rp1945
(lp1946
S'India St & East River'
p1947
aF40.73165141
aF-73.96161892
asg1
(g5
S'+\x0c\x00\x00\x00\x00\x00\x00'
p1948
tp1949
Rp1950
(lp1951
S'India St & Manhattan Ave'
p1952
aF40.73232194
aF-73.9550858
asg1
(g5
S',\x0c\x00\x00\x00\x00\x00\x00'
p1953
tp1954
Rp1955
(lp1956
S'Huron St & Franklin St'
p1957
aF40.732659999999996
aF-73.95826
asg1
(g5
S'-\x0c\x00\x00\x00\x00\x00\x00'
p1958
tp1959
Rp1960
(lp1961
S'Franklin St & Dupont St'
p1962
aF40.735640000000004
aF-73.95866
asg1
(g5
S'.\x0c\x00\x00\x00\x00\x00\x00'
p1963
tp1964
Rp1965
(lp1966
S'McGuinness Blvd & Eagle St'
p1967
aF40.73555
aF-73.95284000000001
asg1
(g5
S'/\x0c\x00\x00\x00\x00\x00\x00'
p1968
tp1969
Rp1970
(lp1971
S'Vernon Blvd & 50 Ave'
p1972
aF40.74232744
aF-73.95411749
asg1
(g5
S'0\x0c\x00\x00\x00\x00\x00\x00'
p1973
tp1974
Rp1975
(lp1976
S'Center Blvd\xc2\xa0& Borden Ave'
p1977
aF40.741609999999994
aF-73.96044
asg1
(g5
S'1\x0c\x00\x00\x00\x00\x00\x00'
p1978
tp1979
Rp1980
(lp1981
S'Jackson Ave & 46 Rd'
p1982
aF40.74524768
aF-73.94733276
asg1
(g5
S'2\x0c\x00\x00\x00\x00\x00\x00'
p1983
tp1984
Rp1985
(lp1986
S'48 Ave & 5 St'
p1987
aF40.7443632871
aF-73.955873251
asg1
(g5
S'3\x0c\x00\x00\x00\x00\x00\x00'
p1988
tp1989
Rp1990
(lp1991
S'31 St & Thomson Ave'
p1992
aF40.74469738
aF-73.93540375
asg1
(g5
S'4\x0c\x00\x00\x00\x00\x00\x00'
p1993
tp1994
Rp1995
(lp1996
S'46 Ave & 5 St'
p1997
aF40.74731
aF-73.95451
asg1
(g5
S'5\x0c\x00\x00\x00\x00\x00\x00'
p1998
tp1999
Rp2000
(lp2001
S'45 Rd & 11 St'
p2002
aF40.74708586
aF-73.94977234
asg1
(g5
S'6\x0c\x00\x00\x00\x00\x00\x00'
p2003
tp2004
Rp2005
(lp2006
S'44 Dr & Jackson Ave'
p2007
aF40.74718234
aF-73.9432635
asg1
(g5
S'7\x0c\x00\x00\x00\x00\x00\x00'
p2008
tp2009
Rp2010
(lp2011
S'9 St & 44 Rd'
p2012
aF40.74966
aF-73.9521
asg1
(g5
S'8\x0c\x00\x00\x00\x00\x00\x00'
p2013
tp2014
Rp2015
(lp2016
S'21 St & 43 Ave'
p2017
aF40.75052534
aF-73.94594845
asg1
(g5
S'9\x0c\x00\x00\x00\x00\x00\x00'
p2018
tp2019
Rp2020
(lp2021
S'Queens Plaza North & Crescent St'
p2022
aF40.75110165
aF-73.94073717
asg1
(g5
S':\x0c\x00\x00\x00\x00\x00\x00'
p2023
tp2024
Rp2025
(lp2026
S'21 St & Queens Plaza North'
p2027
aF40.75325964
aF-73.94335788
asg1
(g5
S'<\x0c\x00\x00\x00\x00\x00\x00'
p2028
tp2029
Rp2030
(lp2031
S'E 59 St & Madison Ave'
p2032
aF40.76350532
aF-73.97109243
asg1
(g5
S'=\x0c\x00\x00\x00\x00\x00\x00'
p2033
tp2034
Rp2035
(lp2036
S'E 67 St & Park Ave'
p2037
aF40.7673425914
aF-73.9648586512
asg1
(g5
S'>\x0c\x00\x00\x00\x00\x00\x00'
p2038
tp2039
Rp2040
(lp2041
S'3 Ave & E 62 St'
p2042
aF40.76312584
aF-73.96526895
asg1
(g5
S'?\x0c\x00\x00\x00\x00\x00\x00'
p2043
tp2044
Rp2045
(lp2046
S'E 75 St & 3 Ave'
p2047
aF40.77112927
aF-73.95772297
asg1
(g5
S'@\x0c\x00\x00\x00\x00\x00\x00'
p2048
tp2049
Rp2050
(lp2051
S'5 Ave & E 63 St'
p2052
aF40.76650452
aF-73.97147595
asg1
(g5
S'A\x0c\x00\x00\x00\x00\x00\x00'
p2053
tp2054
Rp2055
(lp2056
S'5 Ave & E 73 St'
p2057
aF40.77282817
aF-73.96685276
asg1
(g5
S'C\x0c\x00\x00\x00\x00\x00\x00'
p2058
tp2059
Rp2060
(lp2061
S'E 72 St & Park Ave'
p2062
aF40.77122923
aF-73.96432627
asg1
(g5
S'D\x0c\x00\x00\x00\x00\x00\x00'
p2063
tp2064
Rp2065
(lp2066
S'1 Ave & E 78 St'
p2067
aF40.77140426
aF-73.9535166
asg1
(g5
S'E\x0c\x00\x00\x00\x00\x00\x00'
p2068
tp2069
Rp2070
(lp2071
S'1 Ave & E 68 St'
p2072
aF40.76500525
aF-73.95818491
asg1
(g5
S'F\x0c\x00\x00\x00\x00\x00\x00'
p2073
tp2074
Rp2075
(lp2076
S'1 Ave & E 62 St'
p2077
aF40.761227399999996
aF-73.96094022
asg1
(g5
S'G\x0c\x00\x00\x00\x00\x00\x00'
p2078
tp2079
Rp2080
(lp2081
S'5 Ave & E 78 St'
p2082
aF40.7768286344
aF-73.96388769149999
asg1
(g5
S'H\x0c\x00\x00\x00\x00\x00\x00'
p2083
tp2084
Rp2085
(lp2086
S'E 81 St & Park Ave'
p2087
aF40.77677702
aF-73.95900970000001
asg1
(g5
S'I\x0c\x00\x00\x00\x00\x00\x00'
p2088
tp2089
Rp2090
(lp2091
S'E 84 St & Park Ave'
p2092
aF40.77862688
aF-73.95772073
asg1
(g5
S'J\x0c\x00\x00\x00\x00\x00\x00'
p2093
tp2094
Rp2095
(lp2096
S'E 81 St & 3 Ave'
p2097
aF40.77573034
aF-73.9567526
asg1
(g5
S'K\x0c\x00\x00\x00\x00\x00\x00'
p2098
tp2099
Rp2100
(lp2101
S'E 85 St & 3 Ave'
p2102
aF40.77801203
aF-73.95407149
asg1
(g5
S'L\x0c\x00\x00\x00\x00\x00\x00'
p2103
tp2104
Rp2105
(lp2106
S'E 84 St & 1 Ave'
p2107
aF40.77565541
aF-73.95068615
asg1
(g5
S'M\x0c\x00\x00\x00\x00\x00\x00'
p2108
tp2109
Rp2110
(lp2111
S'E 82 St & 2 Ave'
p2112
aF40.77517793
aF-73.95324922
asg1
(g5
S'N\x0c\x00\x00\x00\x00\x00\x00'
p2113
tp2114
Rp2115
(lp2116
S'E 85 St & York Ave'
p2117
aF40.77536905
aF-73.94803392
asg1
(g5
S'S\x0c\x00\x00\x00\x00\x00\x00'
p2118
tp2119
Rp2120
(lp2121
S'Lexington Ave & E 63 St'
p2122
aF40.76440023
aF-73.96648977
asg1
(g5
S'T\x0c\x00\x00\x00\x00\x00\x00'
p2123
tp2124
Rp2125
(lp2126
S'E 72 St & York Ave'
p2127
aF40.76663814
aF-73.95348296
asg1
(g5
S'U\x0c\x00\x00\x00\x00\x00\x00'
p2128
tp2129
Rp2130
(lp2131
S'East End Ave & E 86 St'
p2132
aF40.77518615
aF-73.94446054
asg1
(g5
S'V\x0c\x00\x00\x00\x00\x00\x00'
p2133
tp2134
Rp2135
(lp2136
S'W 63 St & Broadway'
p2137
aF40.77163851
aF-73.98261428
asg1
(g5
S'W\x0c\x00\x00\x00\x00\x00\x00'
p2138
tp2139
Rp2140
(lp2141
S'W 67 St & Broadway'
p2142
aF40.77492513
aF-73.98266566
asg1
(g5
S'X\x0c\x00\x00\x00\x00\x00\x00'
p2143
tp2144
Rp2145
(lp2146
S'Central Park West & W 76 St'
p2147
aF40.77896784
aF-73.97374737
asg1
(g5
S'Y\x0c\x00\x00\x00\x00\x00\x00'
p2148
tp2149
Rp2150
(lp2151
S'W 76 St & Columbus Ave'
p2152
aF40.780183972399996
aF-73.9772853255
asg1
(g5
S'Z\x0c\x00\x00\x00\x00\x00\x00'
p2153
tp2154
Rp2155
(lp2156
S'W 78 St & Broadway'
p2157
aF40.78339981
aF-73.98093133
asg1
(g5
S'[\x0c\x00\x00\x00\x00\x00\x00'
p2158
tp2159
Rp2160
(lp2161
S'Central Park West & W 68 St'
p2162
aF40.7734066
aF-73.97782542
asg1
(g5
S'\\\x0c\x00\x00\x00\x00\x00\x00'
p2163
tp2164
Rp2165
(lp2166
S'Columbus Ave & W 72 St'
p2167
aF40.7770575
aF-73.97898475
asg1
(g5
S']\x0c\x00\x00\x00\x00\x00\x00'
p2168
tp2169
Rp2170
(lp2171
S'Central Park West & W 72 St'
p2172
aF40.77575319
aF-73.97603963
asg1
(g5
S'^\x0c\x00\x00\x00\x00\x00\x00'
p2173
tp2174
Rp2175
(lp2176
S'Riverside Dr & W 72 St '
p2177
aF40.7805779901
aF-73.9856243134
asg1
(g5
S'_\x0c\x00\x00\x00\x00\x00\x00'
p2178
tp2179
Rp2180
(lp2181
S'Amsterdam Ave & W 73 St'
p2182
aF40.7796680901
aF-73.9809304476
asg1
(g5
S'`\x0c\x00\x00\x00\x00\x00\x00'
p2183
tp2184
Rp2185
(lp2186
S'Central Park West & W 85 St'
p2187
aF40.78472675
aF-73.96961715
asg1
(g5
S'a\x0c\x00\x00\x00\x00\x00\x00'
p2188
tp2189
Rp2190
(lp2191
S'Riverside Dr & W 82 St'
p2192
aF40.78720869
aF-73.98128127
asg1
(g5
S'b\x0c\x00\x00\x00\x00\x00\x00'
p2193
tp2194
Rp2195
(lp2196
S'W 84 St & Columbus Ave'
p2197
aF40.78499979
aF-73.97283406
asg1
(g5
S'c\x0c\x00\x00\x00\x00\x00\x00'
p2198
tp2199
Rp2200
(lp2201
S'Amsterdam Ave & W 82 St'
p2202
aF40.78524672
aF-73.97667321
asg1
(g5
S'd\x0c\x00\x00\x00\x00\x00\x00'
p2203
tp2204
Rp2205
(lp2206
S'W 74 St & Columbus Ave'
p2207
aF40.7785669
aF-73.97754961
asg1
(g5
S'e\x0c\x00\x00\x00\x00\x00\x00'
p2208
tp2209
Rp2210
(lp2211
S'Riverside Blvd & W 67 St'
p2212
aF40.7775070275
aF-73.9888858795
asg1
(g5
S'g\x0c\x00\x00\x00\x00\x00\x00'
p2213
tp2214
Rp2215
(lp2216
S'W 70 St & Amsterdam Ave'
p2217
aF40.77748046
aF-73.98288594
asg1
(g5
S'h\x0c\x00\x00\x00\x00\x00\x00'
p2218
tp2219
Rp2220
(lp2221
S'W 64 St & West End Ave'
p2222
aF40.77452835
aF-73.98753759
asg1
(g5
S'i\x0c\x00\x00\x00\x00\x00\x00'
p2223
tp2224
Rp2225
(lp2226
S'W 84 St & Broadway'
p2227
aF40.7867947
aF-73.977112
asg1
(g5
S'j\x0c\x00\x00\x00\x00\x00\x00'
p2228
tp2229
Rp2230
(lp2231
S'Riverside Dr & W 78 St'
p2232
aF40.78414472
aF-73.98362492
asg1
(g5
S'k\x0c\x00\x00\x00\x00\x00\x00'
p2233
tp2234
Rp2235
(lp2236
S'Park Ave & Marcus Garvey Blvd'
p2237
aF40.698617
aF-73.941342
asg1
(g5
S'l\x0c\x00\x00\x00\x00\x00\x00'
p2238
tp2239
Rp2240
(lp2241
S'Brooklyn Bridge Park - Pier 2'
p2242
aF40.69878
aF-73.99712
asg1
(g5
S'm\x0c\x00\x00\x00\x00\x00\x00'
p2243
tp2244
Rp2245
(lp2246
S'Soissons Landing'
p2247
aF40.692609000000004
aF-74.016398
asg1
(g5
S'n\x0c\x00\x00\x00\x00\x00\x00'
p2248
tp2249
Rp2250
(lp2251
S'Yankee Ferry Terminal'
p2252
aF40.686931
aF-74.016966
asg1
(g5
S'\x95\x0c\x00\x00\x00\x00\x00\x00'
p2253
tp2254
Rp2255
(lp2256
S'47 Ave & 31 St'
p2257
aF40.743
aF-73.93561
asg1
(g5
S'\x96\x0c\x00\x00\x00\x00\x00\x00'
p2258
tp2259
Rp2260
(lp2261
S'Hanson Pl & St Felix St'
p2262
aF40.6851595999
aF-73.9771136642
asg1
(g5
S'\x97\x0c\x00\x00\x00\x00\x00\x00'
p2263
tp2264
Rp2265
(lp2266
S'E 55 St & 3 Ave'
p2267
aF40.7589965596
aF-73.9686539769
asg1
(g5
S'\x98\x0c\x00\x00\x00\x00\x00\x00'
p2268
tp2269
Rp2270
(lp2271
S'W 13 St & Hudson St'
p2272
aF40.739973541
aF-74.005138725
asg1
(g5
S'\x9a\x0c\x00\x00\x00\x00\x00\x00'
p2273
tp2274
Rp2275
(lp2276
S'W 82 St & Central Park West'
p2277
aF40.78275
aF-73.97137
asg1
(g5
S'\x9d\x0c\x00\x00\x00\x00\x00\x00'
p2278
tp2279
Rp2280
(lp2281
S'Marcy Ave & MacDonough St'
p2282
aF40.6806176846
aF-73.946249485
asg1
(g5
S'\x9e\x0c\x00\x00\x00\x00\x00\x00'
p2283
tp2284
Rp2285
(lp2286
S'Penn Station Valet'
p2287
aF40.751283597
aF-73.9969244599
asg1
(g5
S'\x9f\x0c\x00\x00\x00\x00\x00\x00'
p2288
tp2289
Rp2290
(lp2291
S'E 67 St & Park Ave'
p2292
aF40.7678008015
aF-73.9659208059
asg1
(g5
S'\xa0\x0c\x00\x00\x00\x00\x00\x00'
p2293
tp2294
Rp2295
(lp2296
S'Bond St & Fulton St'
p2297
aF40.6896218879
aF-73.9830426872
asg1
(g5
S'\xa1\x0c\x00\x00\x00\x00\x00\x00'
p2298
tp2299
Rp2300
(lp2301
S'E 48 St & 5 Ave'
p2302
aF40.757245679099995
aF-73.97805914279999
asg1
(g5
S'\xa2\x0c\x00\x00\x00\x00\x00\x00'
p2303
tp2304
Rp2305
(lp2306
S'E 40 St & Madison Ave'
p2307
aF40.7515936845
aF-73.9804315567
asg1
(g5
S'\xa3\x0c\x00\x00\x00\x00\x00\x00'
p2308
tp2309
Rp2310
(lp2311
S'E 41 St & Madison Ave'
p2312
aF40.752165280599996
aF-73.979921937
asg1
(g5
S'\xa5\x0c\x00\x00\x00\x00\x00\x00'
p2313
tp2314
Rp2315
(lp2316
S'21 St & 41 Ave'
p2317
aF40.7538334344
aF-73.9426767826
asg1
(g5
S'\xd0\x07\x00\x00\x00\x00\x00\x00'
p2318
tp2319
Rp2320
(lp2321
S'Front St & Washington St'
p2322
aF40.70255088
aF-73.98940236
asg1
(g5
S'\xd1\x07\x00\x00\x00\x00\x00\x00'
p2323
tp2324
Rp2325
(lp2326
S'7 Ave & Farragut St'
p2327
aF40.699773
aF-73.979927
asg1
(g5
S'\xd2\x07\x00\x00\x00\x00\x00\x00'
p2328
tp2329
Rp2330
(lp2331
S'Wythe Ave & Metropolitan Ave'
p2332
aF40.716887
aF-73.96319799999999
asg1
(g5
S'\xd3\x07\x00\x00\x00\x00\x00\x00'
p2333
tp2334
Rp2335
(lp2336
S'1 Ave & E 18 St'
p2337
aF40.73416059
aF-73.98024289
asg1
(g5
S'\xd4\x07\x00\x00\x00\x00\x00\x00'
p2338
tp2339
Rp2340
(lp2341
S'6 Ave & Broome St'
p2342
aF40.724399
aF-74.004704
asg1
(g5
S'\xd5\x07\x00\x00\x00\x00\x00\x00'
p2343
tp2344
Rp2345
(lp2346
S'Railroad Ave & Kay Ave'
p2347
aF40.70531194
aF-73.97100056
asg1
(g5
S'\xd6\x07\x00\x00\x00\x00\x00\x00'
p2348
tp2349
Rp2350
(lp2351
S'Central Park S & 6 Ave'
p2352
aF40.76590936
aF-73.97634151
asg1
(g5
S'\xd8\x07\x00\x00\x00\x00\x00\x00'
p2353
tp2354
Rp2355
(lp2356
S'Little West St & 1 Pl'
p2357
aF40.70569254
aF-74.01677685
asg1
(g5
S'\xd9\x07\x00\x00\x00\x00\x00\x00'
p2358
tp2359
Rp2360
(lp2361
S'Catherine St & Monroe St'
p2362
aF40.71117444
aF-73.99682619
asg1
(g5
S'\xda\x07\x00\x00\x00\x00\x00\x00'
p2363
tp2364
Rp2365
(lp2366
S'Grand St & Greene St'
p2367
aF40.72165481
aF-74.00234737
asg1
(g5
S'\xdc\x07\x00\x00\x00\x00\x00\x00'
p2368
tp2369
Rp2370
(lp2371
S'E 27 St & 1 Ave'
p2372
aF40.739445
aF-73.97680600000001
asg1
(g5
S'\xe1\x07\x00\x00\x00\x00\x00\x00'
p2373
tp2374
Rp2375
(lp2376
S'E 43 St & 2 Ave'
p2377
aF40.75022392
aF-73.97121414
asg1
(g5
S'\xe5\x07\x00\x00\x00\x00\x00\x00'
p2378
tp2379
Rp2380
(lp2381
S'W 45 St & 8 Ave'
p2382
aF40.75929124
aF-73.98859651
asg1
(g5
S'\xe6\x07\x00\x00\x00\x00\x00\x00'
p2383
tp2384
Rp2385
(lp2386
S'E 59 St & Sutton Pl'
p2387
aF40.75849116
aF-73.95920622
asg1
(g5
S'\xe7\x07\x00\x00\x00\x00\x00\x00'
p2388
tp2389
Rp2390
(lp2391
S'E 55 St & Lexington Ave'
p2392
aF40.75968085
aF-73.97031366
as.